
master.elf:     file format elf32-avr

Sections:
Idx Name          Size      VMA       LMA       File off  Algn
  0 .text         00002308  00000000  00000000  00000094  2**1
                  CONTENTS, ALLOC, LOAD, READONLY, CODE
  1 .data         00000116  00800060  00002308  0000239c  2**0
                  CONTENTS, ALLOC, LOAD, DATA
  2 .bss          00000005  00800176  00800176  000024b2  2**0
                  ALLOC
  3 .stab         000018e4  00000000  00000000  000024b4  2**2
                  CONTENTS, READONLY, DEBUGGING
  4 .stabstr      00000582  00000000  00000000  00003d98  2**0
                  CONTENTS, READONLY, DEBUGGING
  5 .debug_aranges 00000260  00000000  00000000  00004320  2**3
                  CONTENTS, READONLY, DEBUGGING
  6 .debug_info   000035f6  00000000  00000000  00004580  2**0
                  CONTENTS, READONLY, DEBUGGING
  7 .debug_abbrev 0000101e  00000000  00000000  00007b76  2**0
                  CONTENTS, READONLY, DEBUGGING
  8 .debug_line   000015ad  00000000  00000000  00008b94  2**0
                  CONTENTS, READONLY, DEBUGGING
  9 .debug_frame  0000097c  00000000  00000000  0000a144  2**2
                  CONTENTS, READONLY, DEBUGGING
 10 .debug_str    000007ef  00000000  00000000  0000aac0  2**0
                  CONTENTS, READONLY, DEBUGGING
 11 .debug_loc    00001b50  00000000  00000000  0000b2af  2**0
                  CONTENTS, READONLY, DEBUGGING
 12 .debug_ranges 00000018  00000000  00000000  0000cdff  2**0
                  CONTENTS, READONLY, DEBUGGING

Disassembly of section .text:

00000000 <__vectors>:
       0:	0c 94 2a 00 	jmp	0x54	; 0x54 <__ctors_end>
       4:	0c 94 47 00 	jmp	0x8e	; 0x8e <__bad_interrupt>
       8:	0c 94 47 00 	jmp	0x8e	; 0x8e <__bad_interrupt>
       c:	0c 94 47 00 	jmp	0x8e	; 0x8e <__bad_interrupt>
      10:	0c 94 47 00 	jmp	0x8e	; 0x8e <__bad_interrupt>
      14:	0c 94 47 00 	jmp	0x8e	; 0x8e <__bad_interrupt>
      18:	0c 94 47 00 	jmp	0x8e	; 0x8e <__bad_interrupt>
      1c:	0c 94 32 0f 	jmp	0x1e64	; 0x1e64 <__vector_7>
      20:	0c 94 47 00 	jmp	0x8e	; 0x8e <__bad_interrupt>
      24:	0c 94 47 00 	jmp	0x8e	; 0x8e <__bad_interrupt>
      28:	0c 94 10 0f 	jmp	0x1e20	; 0x1e20 <__vector_10>
      2c:	0c 94 47 00 	jmp	0x8e	; 0x8e <__bad_interrupt>
      30:	0c 94 4d 0f 	jmp	0x1e9a	; 0x1e9a <__vector_12>
      34:	0c 94 47 00 	jmp	0x8e	; 0x8e <__bad_interrupt>
      38:	0c 94 47 00 	jmp	0x8e	; 0x8e <__bad_interrupt>
      3c:	0c 94 47 00 	jmp	0x8e	; 0x8e <__bad_interrupt>
      40:	0c 94 47 00 	jmp	0x8e	; 0x8e <__bad_interrupt>
      44:	0c 94 47 00 	jmp	0x8e	; 0x8e <__bad_interrupt>
      48:	0c 94 47 00 	jmp	0x8e	; 0x8e <__bad_interrupt>
      4c:	0c 94 47 00 	jmp	0x8e	; 0x8e <__bad_interrupt>
      50:	0c 94 47 00 	jmp	0x8e	; 0x8e <__bad_interrupt>

00000054 <__ctors_end>:
      54:	11 24       	eor	r1, r1
      56:	1f be       	out	0x3f, r1	; 63
      58:	cf e5       	ldi	r28, 0x5F	; 95
      5a:	d8 e0       	ldi	r29, 0x08	; 8
      5c:	de bf       	out	0x3e, r29	; 62
      5e:	cd bf       	out	0x3d, r28	; 61

00000060 <__do_copy_data>:
      60:	11 e0       	ldi	r17, 0x01	; 1
      62:	a0 e6       	ldi	r26, 0x60	; 96
      64:	b0 e0       	ldi	r27, 0x00	; 0
      66:	e8 e0       	ldi	r30, 0x08	; 8
      68:	f3 e2       	ldi	r31, 0x23	; 35
      6a:	02 c0       	rjmp	.+4      	; 0x70 <__do_copy_data+0x10>
      6c:	05 90       	lpm	r0, Z+
      6e:	0d 92       	st	X+, r0
      70:	a6 37       	cpi	r26, 0x76	; 118
      72:	b1 07       	cpc	r27, r17
      74:	d9 f7       	brne	.-10     	; 0x6c <__do_copy_data+0xc>

00000076 <__do_clear_bss>:
      76:	11 e0       	ldi	r17, 0x01	; 1
      78:	a6 e7       	ldi	r26, 0x76	; 118
      7a:	b1 e0       	ldi	r27, 0x01	; 1
      7c:	01 c0       	rjmp	.+2      	; 0x80 <.do_clear_bss_start>

0000007e <.do_clear_bss_loop>:
      7e:	1d 92       	st	X+, r1

00000080 <.do_clear_bss_start>:
      80:	ab 37       	cpi	r26, 0x7B	; 123
      82:	b1 07       	cpc	r27, r17
      84:	e1 f7       	brne	.-8      	; 0x7e <.do_clear_bss_loop>
      86:	0e 94 d9 0c 	call	0x19b2	; 0x19b2 <main>
      8a:	0c 94 82 11 	jmp	0x2304	; 0x2304 <_exit>

0000008e <__bad_interrupt>:
      8e:	0c 94 00 00 	jmp	0	; 0x0 <__vectors>

00000092 <ADC_vint>:

	void ADC_vint()
{
	
		/*enable ADC*/
		SET_BIT(ADCSRA,ADEN);
      92:	37 9a       	sbi	0x06, 7	; 6
	
		/* choose Vref*/
		SET_BIT(ADMUX,REFS0);
      94:	3e 9a       	sbi	0x07, 6	; 7
		CLR_BIT(ADMUX,REFS1);
      96:	3f 98       	cbi	0x07, 7	; 7
	
		/* chose clock*/
		SET_BIT(ADCSRA,ADPS2);
      98:	32 9a       	sbi	0x06, 2	; 6
		SET_BIT(ADCSRA,ADPS1);
      9a:	31 9a       	sbi	0x06, 1	; 6
		SET_BIT(ADCSRA,ADPS0);
      9c:	30 9a       	sbi	0x06, 0	; 6
	
		/*global interrupt */
		sei();
      9e:	78 94       	sei
		/*set interrupt*/
		SET_BIT(ADCSRA,ADIE);
      a0:	33 9a       	sbi	0x06, 3	; 6
	
}
      a2:	08 95       	ret

000000a4 <ADC_u16Read>:
	unsigned short ADC_u16Read()
{
	
		short reading=0;
		/* request new conversion*/
		SET_BIT(ADCSRA,ADSC);
      a4:	36 9a       	sbi	0x06, 6	; 6
	
		/*wait for ADIF table*/
		while(READ_BIT_SET(ADCSRA,ADIF)==0)
      a6:	34 9b       	sbis	0x06, 4	; 6
      a8:	fe cf       	rjmp	.-4      	; 0xa6 <ADC_u16Read+0x2>
		{
			//wait
		}
				
		/* read bits*/
		reading |=ADCL;
      aa:	84 b1       	in	r24, 0x04	; 4
		reading |=(short)(ADCH<<8);
      ac:	95 b1       	in	r25, 0x05	; 5
      ae:	39 2f       	mov	r19, r25
      b0:	20 e0       	ldi	r18, 0x00	; 0
		{
			//wait
		}
				
		/* read bits*/
		reading |=ADCL;
      b2:	90 e0       	ldi	r25, 0x00	; 0
		reading |=(short)(ADCH<<8);
      b4:	82 2b       	or	r24, r18
      b6:	93 2b       	or	r25, r19
		
		return reading;
	
}
      b8:	08 95       	ret

000000ba <ADC_vStartconvin>:


	void ADC_vStartconvin()
{
		/* request new conversion*/
		SET_BIT(ADCSRA,ADSC);
      ba:	36 9a       	sbi	0x06, 6	; 6
}
      bc:	08 95       	ret

000000be <ADC_u16Read_intr>:
	unsigned short ADC_u16Read_intr()
{
		short reading=0;
		
		/* read bits*/
		reading |=ADCL;
      be:	84 b1       	in	r24, 0x04	; 4
		reading |=(short)(ADCH<<8);
      c0:	95 b1       	in	r25, 0x05	; 5
      c2:	39 2f       	mov	r19, r25
      c4:	20 e0       	ldi	r18, 0x00	; 0
	unsigned short ADC_u16Read_intr()
{
		short reading=0;
		
		/* read bits*/
		reading |=ADCL;
      c6:	90 e0       	ldi	r25, 0x00	; 0
		reading |=(short)(ADCH<<8);
      c8:	82 2b       	or	r24, r18
      ca:	93 2b       	or	r25, r19
	
		return reading;
      cc:	08 95       	ret

000000ce <DIO_vsetpindirection>:
// #include "DIO.h"
 #include "COMMON_CONFIG.h"
 
	void DIO_vsetpindirection(char portname ,char pinnum,char dir)
{
		 switch (portname)
      ce:	84 34       	cpi	r24, 0x44	; 68
      d0:	09 f4       	brne	.+2      	; 0xd4 <DIO_vsetpindirection+0x6>
      d2:	71 c0       	rjmp	.+226    	; 0x1b6 <DIO_vsetpindirection+0xe8>
      d4:	85 34       	cpi	r24, 0x45	; 69
      d6:	48 f4       	brcc	.+18     	; 0xea <DIO_vsetpindirection+0x1c>
      d8:	82 34       	cpi	r24, 0x42	; 66
      da:	99 f1       	breq	.+102    	; 0x142 <DIO_vsetpindirection+0x74>
      dc:	83 34       	cpi	r24, 0x43	; 67
      de:	08 f0       	brcs	.+2      	; 0xe2 <DIO_vsetpindirection+0x14>
      e0:	4d c0       	rjmp	.+154    	; 0x17c <DIO_vsetpindirection+0xae>
      e2:	81 34       	cpi	r24, 0x41	; 65
      e4:	09 f0       	breq	.+2      	; 0xe8 <DIO_vsetpindirection+0x1a>
      e6:	83 c0       	rjmp	.+262    	; 0x1ee <DIO_vsetpindirection+0x120>
      e8:	0f c0       	rjmp	.+30     	; 0x108 <DIO_vsetpindirection+0x3a>
      ea:	82 36       	cpi	r24, 0x62	; 98
      ec:	51 f1       	breq	.+84     	; 0x142 <DIO_vsetpindirection+0x74>
      ee:	83 36       	cpi	r24, 0x63	; 99
      f0:	20 f4       	brcc	.+8      	; 0xfa <DIO_vsetpindirection+0x2c>
      f2:	81 36       	cpi	r24, 0x61	; 97
      f4:	09 f0       	breq	.+2      	; 0xf8 <DIO_vsetpindirection+0x2a>
      f6:	7b c0       	rjmp	.+246    	; 0x1ee <DIO_vsetpindirection+0x120>
      f8:	07 c0       	rjmp	.+14     	; 0x108 <DIO_vsetpindirection+0x3a>
      fa:	83 36       	cpi	r24, 0x63	; 99
      fc:	09 f4       	brne	.+2      	; 0x100 <DIO_vsetpindirection+0x32>
      fe:	3e c0       	rjmp	.+124    	; 0x17c <DIO_vsetpindirection+0xae>
     100:	84 36       	cpi	r24, 0x64	; 100
     102:	09 f0       	breq	.+2      	; 0x106 <DIO_vsetpindirection+0x38>
     104:	74 c0       	rjmp	.+232    	; 0x1ee <DIO_vsetpindirection+0x120>
     106:	57 c0       	rjmp	.+174    	; 0x1b6 <DIO_vsetpindirection+0xe8>
		 {
			 case 'A':
			 case 'a':
			 
					if (dir==1)
     108:	41 30       	cpi	r20, 0x01	; 1
     10a:	69 f4       	brne	.+26     	; 0x126 <DIO_vsetpindirection+0x58>
					{
						SET_BIT(DDRA,pinnum);
     10c:	2a b3       	in	r18, 0x1a	; 26
     10e:	81 e0       	ldi	r24, 0x01	; 1
     110:	90 e0       	ldi	r25, 0x00	; 0
     112:	ac 01       	movw	r20, r24
     114:	02 c0       	rjmp	.+4      	; 0x11a <DIO_vsetpindirection+0x4c>
     116:	44 0f       	add	r20, r20
     118:	55 1f       	adc	r21, r21
     11a:	6a 95       	dec	r22
     11c:	e2 f7       	brpl	.-8      	; 0x116 <DIO_vsetpindirection+0x48>
     11e:	ba 01       	movw	r22, r20
     120:	62 2b       	or	r22, r18
     122:	6a bb       	out	0x1a, r22	; 26
     124:	08 95       	ret
						// DDRA |= (1<<pinnum);
					}
					
					else
					{
						CLR_BIT(DDRA,pinnum);
     126:	2a b3       	in	r18, 0x1a	; 26
     128:	81 e0       	ldi	r24, 0x01	; 1
     12a:	90 e0       	ldi	r25, 0x00	; 0
     12c:	ac 01       	movw	r20, r24
     12e:	02 c0       	rjmp	.+4      	; 0x134 <DIO_vsetpindirection+0x66>
     130:	44 0f       	add	r20, r20
     132:	55 1f       	adc	r21, r21
     134:	6a 95       	dec	r22
     136:	e2 f7       	brpl	.-8      	; 0x130 <DIO_vsetpindirection+0x62>
     138:	ba 01       	movw	r22, r20
     13a:	60 95       	com	r22
     13c:	62 23       	and	r22, r18
     13e:	6a bb       	out	0x1a, r22	; 26
     140:	08 95       	ret
					break;
			
			case 'B':
			case 'b':
			
					if (dir==1)
     142:	41 30       	cpi	r20, 0x01	; 1
     144:	69 f4       	brne	.+26     	; 0x160 <DIO_vsetpindirection+0x92>
					{
						SET_BIT(DDRB,pinnum);	
     146:	27 b3       	in	r18, 0x17	; 23
     148:	81 e0       	ldi	r24, 0x01	; 1
     14a:	90 e0       	ldi	r25, 0x00	; 0
     14c:	ac 01       	movw	r20, r24
     14e:	02 c0       	rjmp	.+4      	; 0x154 <DIO_vsetpindirection+0x86>
     150:	44 0f       	add	r20, r20
     152:	55 1f       	adc	r21, r21
     154:	6a 95       	dec	r22
     156:	e2 f7       	brpl	.-8      	; 0x150 <DIO_vsetpindirection+0x82>
     158:	ba 01       	movw	r22, r20
     15a:	62 2b       	or	r22, r18
     15c:	67 bb       	out	0x17, r22	; 23
     15e:	08 95       	ret
						//DDRB |= (1<<pinnum);
					}
					
					else
					{
						 CLR_BIT(DDRB,pinnum);
     160:	27 b3       	in	r18, 0x17	; 23
     162:	81 e0       	ldi	r24, 0x01	; 1
     164:	90 e0       	ldi	r25, 0x00	; 0
     166:	ac 01       	movw	r20, r24
     168:	02 c0       	rjmp	.+4      	; 0x16e <DIO_vsetpindirection+0xa0>
     16a:	44 0f       	add	r20, r20
     16c:	55 1f       	adc	r21, r21
     16e:	6a 95       	dec	r22
     170:	e2 f7       	brpl	.-8      	; 0x16a <DIO_vsetpindirection+0x9c>
     172:	ba 01       	movw	r22, r20
     174:	60 95       	com	r22
     176:	62 23       	and	r22, r18
     178:	67 bb       	out	0x17, r22	; 23
     17a:	08 95       	ret
					break;
					
		 	case 'C':
			case 'c':
			
					if (dir==1)
     17c:	41 30       	cpi	r20, 0x01	; 1
     17e:	69 f4       	brne	.+26     	; 0x19a <DIO_vsetpindirection+0xcc>
					{
						SET_BIT(DDRC,pinnum);
     180:	24 b3       	in	r18, 0x14	; 20
     182:	81 e0       	ldi	r24, 0x01	; 1
     184:	90 e0       	ldi	r25, 0x00	; 0
     186:	ac 01       	movw	r20, r24
     188:	02 c0       	rjmp	.+4      	; 0x18e <DIO_vsetpindirection+0xc0>
     18a:	44 0f       	add	r20, r20
     18c:	55 1f       	adc	r21, r21
     18e:	6a 95       	dec	r22
     190:	e2 f7       	brpl	.-8      	; 0x18a <DIO_vsetpindirection+0xbc>
     192:	ba 01       	movw	r22, r20
     194:	62 2b       	or	r22, r18
     196:	64 bb       	out	0x14, r22	; 20
     198:	08 95       	ret
						//DDRC |= (1<<pinnum);
					}
			
					else
					{
						CLR_BIT(DDRC,pinnum);
     19a:	24 b3       	in	r18, 0x14	; 20
     19c:	81 e0       	ldi	r24, 0x01	; 1
     19e:	90 e0       	ldi	r25, 0x00	; 0
     1a0:	ac 01       	movw	r20, r24
     1a2:	02 c0       	rjmp	.+4      	; 0x1a8 <DIO_vsetpindirection+0xda>
     1a4:	44 0f       	add	r20, r20
     1a6:	55 1f       	adc	r21, r21
     1a8:	6a 95       	dec	r22
     1aa:	e2 f7       	brpl	.-8      	; 0x1a4 <DIO_vsetpindirection+0xd6>
     1ac:	ba 01       	movw	r22, r20
     1ae:	60 95       	com	r22
     1b0:	62 23       	and	r22, r18
     1b2:	64 bb       	out	0x14, r22	; 20
     1b4:	08 95       	ret
					break;	
					 
			case 'D':
			case 'd':
			
					if (dir==1)
     1b6:	41 30       	cpi	r20, 0x01	; 1
     1b8:	69 f4       	brne	.+26     	; 0x1d4 <DIO_vsetpindirection+0x106>
					{
						SET_BIT(DDRD,pinnum);
     1ba:	21 b3       	in	r18, 0x11	; 17
     1bc:	81 e0       	ldi	r24, 0x01	; 1
     1be:	90 e0       	ldi	r25, 0x00	; 0
     1c0:	ac 01       	movw	r20, r24
     1c2:	02 c0       	rjmp	.+4      	; 0x1c8 <DIO_vsetpindirection+0xfa>
     1c4:	44 0f       	add	r20, r20
     1c6:	55 1f       	adc	r21, r21
     1c8:	6a 95       	dec	r22
     1ca:	e2 f7       	brpl	.-8      	; 0x1c4 <DIO_vsetpindirection+0xf6>
     1cc:	ba 01       	movw	r22, r20
     1ce:	62 2b       	or	r22, r18
     1d0:	61 bb       	out	0x11, r22	; 17
     1d2:	08 95       	ret
						//DDRD |= (1<<pinnum);
					}
			
					else
					{
						CLR_BIT(DDRD,pinnum);
     1d4:	21 b3       	in	r18, 0x11	; 17
     1d6:	81 e0       	ldi	r24, 0x01	; 1
     1d8:	90 e0       	ldi	r25, 0x00	; 0
     1da:	ac 01       	movw	r20, r24
     1dc:	02 c0       	rjmp	.+4      	; 0x1e2 <DIO_vsetpindirection+0x114>
     1de:	44 0f       	add	r20, r20
     1e0:	55 1f       	adc	r21, r21
     1e2:	6a 95       	dec	r22
     1e4:	e2 f7       	brpl	.-8      	; 0x1de <DIO_vsetpindirection+0x110>
     1e6:	ba 01       	movw	r22, r20
     1e8:	60 95       	com	r22
     1ea:	62 23       	and	r22, r18
     1ec:	61 bb       	out	0x11, r22	; 17
     1ee:	08 95       	ret

000001f0 <DIO_vWrite>:
		}			 
} 
		
	void DIO_vWrite(char portname ,char pinnum,char res)
{
		switch (portname)
     1f0:	84 34       	cpi	r24, 0x44	; 68
     1f2:	09 f4       	brne	.+2      	; 0x1f6 <DIO_vWrite+0x6>
     1f4:	71 c0       	rjmp	.+226    	; 0x2d8 <DIO_vWrite+0xe8>
     1f6:	85 34       	cpi	r24, 0x45	; 69
     1f8:	48 f4       	brcc	.+18     	; 0x20c <DIO_vWrite+0x1c>
     1fa:	82 34       	cpi	r24, 0x42	; 66
     1fc:	99 f1       	breq	.+102    	; 0x264 <DIO_vWrite+0x74>
     1fe:	83 34       	cpi	r24, 0x43	; 67
     200:	08 f0       	brcs	.+2      	; 0x204 <DIO_vWrite+0x14>
     202:	4d c0       	rjmp	.+154    	; 0x29e <DIO_vWrite+0xae>
     204:	81 34       	cpi	r24, 0x41	; 65
     206:	09 f0       	breq	.+2      	; 0x20a <DIO_vWrite+0x1a>
     208:	83 c0       	rjmp	.+262    	; 0x310 <DIO_vWrite+0x120>
     20a:	0f c0       	rjmp	.+30     	; 0x22a <DIO_vWrite+0x3a>
     20c:	82 36       	cpi	r24, 0x62	; 98
     20e:	51 f1       	breq	.+84     	; 0x264 <DIO_vWrite+0x74>
     210:	83 36       	cpi	r24, 0x63	; 99
     212:	20 f4       	brcc	.+8      	; 0x21c <DIO_vWrite+0x2c>
     214:	81 36       	cpi	r24, 0x61	; 97
     216:	09 f0       	breq	.+2      	; 0x21a <DIO_vWrite+0x2a>
     218:	7b c0       	rjmp	.+246    	; 0x310 <DIO_vWrite+0x120>
     21a:	07 c0       	rjmp	.+14     	; 0x22a <DIO_vWrite+0x3a>
     21c:	83 36       	cpi	r24, 0x63	; 99
     21e:	09 f4       	brne	.+2      	; 0x222 <DIO_vWrite+0x32>
     220:	3e c0       	rjmp	.+124    	; 0x29e <DIO_vWrite+0xae>
     222:	84 36       	cpi	r24, 0x64	; 100
     224:	09 f0       	breq	.+2      	; 0x228 <DIO_vWrite+0x38>
     226:	74 c0       	rjmp	.+232    	; 0x310 <DIO_vWrite+0x120>
     228:	57 c0       	rjmp	.+174    	; 0x2d8 <DIO_vWrite+0xe8>
	{
			case 'A':
			case 'a': 
				if (res==1)
     22a:	41 30       	cpi	r20, 0x01	; 1
     22c:	69 f4       	brne	.+26     	; 0x248 <DIO_vWrite+0x58>
			{
				SET_BIT(PORTA,pinnum);
     22e:	2b b3       	in	r18, 0x1b	; 27
     230:	81 e0       	ldi	r24, 0x01	; 1
     232:	90 e0       	ldi	r25, 0x00	; 0
     234:	ac 01       	movw	r20, r24
     236:	02 c0       	rjmp	.+4      	; 0x23c <DIO_vWrite+0x4c>
     238:	44 0f       	add	r20, r20
     23a:	55 1f       	adc	r21, r21
     23c:	6a 95       	dec	r22
     23e:	e2 f7       	brpl	.-8      	; 0x238 <DIO_vWrite+0x48>
     240:	ba 01       	movw	r22, r20
     242:	62 2b       	or	r22, r18
     244:	6b bb       	out	0x1b, r22	; 27
     246:	08 95       	ret
				//PORTA |= (1<<pinnum);
			}
				
			else
			{
				CLR_BIT(PORTA,pinnum);
     248:	2b b3       	in	r18, 0x1b	; 27
     24a:	81 e0       	ldi	r24, 0x01	; 1
     24c:	90 e0       	ldi	r25, 0x00	; 0
     24e:	ac 01       	movw	r20, r24
     250:	02 c0       	rjmp	.+4      	; 0x256 <DIO_vWrite+0x66>
     252:	44 0f       	add	r20, r20
     254:	55 1f       	adc	r21, r21
     256:	6a 95       	dec	r22
     258:	e2 f7       	brpl	.-8      	; 0x252 <DIO_vWrite+0x62>
     25a:	ba 01       	movw	r22, r20
     25c:	60 95       	com	r22
     25e:	62 23       	and	r22, r18
     260:	6b bb       	out	0x1b, r22	; 27
     262:	08 95       	ret
			}
			break;
			
		case 'B':
		case 'b':
			if (res==1)
     264:	41 30       	cpi	r20, 0x01	; 1
     266:	69 f4       	brne	.+26     	; 0x282 <DIO_vWrite+0x92>
			{
				SET_BIT(PORTB,pinnum);
     268:	28 b3       	in	r18, 0x18	; 24
     26a:	81 e0       	ldi	r24, 0x01	; 1
     26c:	90 e0       	ldi	r25, 0x00	; 0
     26e:	ac 01       	movw	r20, r24
     270:	02 c0       	rjmp	.+4      	; 0x276 <DIO_vWrite+0x86>
     272:	44 0f       	add	r20, r20
     274:	55 1f       	adc	r21, r21
     276:	6a 95       	dec	r22
     278:	e2 f7       	brpl	.-8      	; 0x272 <DIO_vWrite+0x82>
     27a:	ba 01       	movw	r22, r20
     27c:	62 2b       	or	r22, r18
     27e:	68 bb       	out	0x18, r22	; 24
     280:	08 95       	ret
				//PORTB |= (1<<pinnum);
			}
			
			else
			{
				CLR_BIT(PORTB,pinnum);
     282:	28 b3       	in	r18, 0x18	; 24
     284:	81 e0       	ldi	r24, 0x01	; 1
     286:	90 e0       	ldi	r25, 0x00	; 0
     288:	ac 01       	movw	r20, r24
     28a:	02 c0       	rjmp	.+4      	; 0x290 <DIO_vWrite+0xa0>
     28c:	44 0f       	add	r20, r20
     28e:	55 1f       	adc	r21, r21
     290:	6a 95       	dec	r22
     292:	e2 f7       	brpl	.-8      	; 0x28c <DIO_vWrite+0x9c>
     294:	ba 01       	movw	r22, r20
     296:	60 95       	com	r22
     298:	62 23       	and	r22, r18
     29a:	68 bb       	out	0x18, r22	; 24
     29c:	08 95       	ret
			}
			break;
		
		case 'C':
		case 'c':
			if (res==1)
     29e:	41 30       	cpi	r20, 0x01	; 1
     2a0:	69 f4       	brne	.+26     	; 0x2bc <DIO_vWrite+0xcc>
			{
				SET_BIT(PORTC,pinnum);
     2a2:	25 b3       	in	r18, 0x15	; 21
     2a4:	81 e0       	ldi	r24, 0x01	; 1
     2a6:	90 e0       	ldi	r25, 0x00	; 0
     2a8:	ac 01       	movw	r20, r24
     2aa:	02 c0       	rjmp	.+4      	; 0x2b0 <DIO_vWrite+0xc0>
     2ac:	44 0f       	add	r20, r20
     2ae:	55 1f       	adc	r21, r21
     2b0:	6a 95       	dec	r22
     2b2:	e2 f7       	brpl	.-8      	; 0x2ac <DIO_vWrite+0xbc>
     2b4:	ba 01       	movw	r22, r20
     2b6:	62 2b       	or	r22, r18
     2b8:	65 bb       	out	0x15, r22	; 21
     2ba:	08 95       	ret
				//PORTC |= (1<<pinnum);
			}
		
			else
			{
				CLR_BIT(PORTC,pinnum);
     2bc:	25 b3       	in	r18, 0x15	; 21
     2be:	81 e0       	ldi	r24, 0x01	; 1
     2c0:	90 e0       	ldi	r25, 0x00	; 0
     2c2:	ac 01       	movw	r20, r24
     2c4:	02 c0       	rjmp	.+4      	; 0x2ca <DIO_vWrite+0xda>
     2c6:	44 0f       	add	r20, r20
     2c8:	55 1f       	adc	r21, r21
     2ca:	6a 95       	dec	r22
     2cc:	e2 f7       	brpl	.-8      	; 0x2c6 <DIO_vWrite+0xd6>
     2ce:	ba 01       	movw	r22, r20
     2d0:	60 95       	com	r22
     2d2:	62 23       	and	r22, r18
     2d4:	65 bb       	out	0x15, r22	; 21
     2d6:	08 95       	ret
			}
			break;
			
		case 'D':
		case 'd':
			if (res==1)
     2d8:	41 30       	cpi	r20, 0x01	; 1
     2da:	69 f4       	brne	.+26     	; 0x2f6 <DIO_vWrite+0x106>
			{
				SET_BIT(PORTD,pinnum);
     2dc:	22 b3       	in	r18, 0x12	; 18
     2de:	81 e0       	ldi	r24, 0x01	; 1
     2e0:	90 e0       	ldi	r25, 0x00	; 0
     2e2:	ac 01       	movw	r20, r24
     2e4:	02 c0       	rjmp	.+4      	; 0x2ea <DIO_vWrite+0xfa>
     2e6:	44 0f       	add	r20, r20
     2e8:	55 1f       	adc	r21, r21
     2ea:	6a 95       	dec	r22
     2ec:	e2 f7       	brpl	.-8      	; 0x2e6 <DIO_vWrite+0xf6>
     2ee:	ba 01       	movw	r22, r20
     2f0:	62 2b       	or	r22, r18
     2f2:	62 bb       	out	0x12, r22	; 18
     2f4:	08 95       	ret
				//PORTD |= (1<<pinnum);
			}
	
			else
			{
				CLR_BIT(PORTD,pinnum);
     2f6:	22 b3       	in	r18, 0x12	; 18
     2f8:	81 e0       	ldi	r24, 0x01	; 1
     2fa:	90 e0       	ldi	r25, 0x00	; 0
     2fc:	ac 01       	movw	r20, r24
     2fe:	02 c0       	rjmp	.+4      	; 0x304 <DIO_vWrite+0x114>
     300:	44 0f       	add	r20, r20
     302:	55 1f       	adc	r21, r21
     304:	6a 95       	dec	r22
     306:	e2 f7       	brpl	.-8      	; 0x300 <DIO_vWrite+0x110>
     308:	ba 01       	movw	r22, r20
     30a:	60 95       	com	r22
     30c:	62 23       	and	r22, r18
     30e:	62 bb       	out	0x12, r22	; 18
     310:	08 95       	ret

00000312 <DIO_vToggle>:
}		
		
		
void DIO_vToggle(char portname ,char pinnum)
{
		switch(portname)
     312:	84 34       	cpi	r24, 0x44	; 68
     314:	09 f4       	brne	.+2      	; 0x318 <DIO_vToggle+0x6>
     316:	3d c0       	rjmp	.+122    	; 0x392 <DIO_vToggle+0x80>
     318:	85 34       	cpi	r24, 0x45	; 69
     31a:	40 f4       	brcc	.+16     	; 0x32c <DIO_vToggle+0x1a>
     31c:	82 34       	cpi	r24, 0x42	; 66
     31e:	f9 f0       	breq	.+62     	; 0x35e <DIO_vToggle+0x4c>
     320:	83 34       	cpi	r24, 0x43	; 67
     322:	50 f5       	brcc	.+84     	; 0x378 <DIO_vToggle+0x66>
     324:	81 34       	cpi	r24, 0x41	; 65
     326:	09 f0       	breq	.+2      	; 0x32a <DIO_vToggle+0x18>
     328:	40 c0       	rjmp	.+128    	; 0x3aa <DIO_vToggle+0x98>
     32a:	0c c0       	rjmp	.+24     	; 0x344 <DIO_vToggle+0x32>
     32c:	82 36       	cpi	r24, 0x62	; 98
     32e:	b9 f0       	breq	.+46     	; 0x35e <DIO_vToggle+0x4c>
     330:	83 36       	cpi	r24, 0x63	; 99
     332:	18 f4       	brcc	.+6      	; 0x33a <DIO_vToggle+0x28>
     334:	81 36       	cpi	r24, 0x61	; 97
     336:	c9 f5       	brne	.+114    	; 0x3aa <DIO_vToggle+0x98>
     338:	05 c0       	rjmp	.+10     	; 0x344 <DIO_vToggle+0x32>
     33a:	83 36       	cpi	r24, 0x63	; 99
     33c:	e9 f0       	breq	.+58     	; 0x378 <DIO_vToggle+0x66>
     33e:	84 36       	cpi	r24, 0x64	; 100
     340:	a1 f5       	brne	.+104    	; 0x3aa <DIO_vToggle+0x98>
     342:	27 c0       	rjmp	.+78     	; 0x392 <DIO_vToggle+0x80>
	{
		
		case'A':
		case'a':
		
			TOG_BIT(PORTA,pinnum);
     344:	2b b3       	in	r18, 0x1b	; 27
     346:	81 e0       	ldi	r24, 0x01	; 1
     348:	90 e0       	ldi	r25, 0x00	; 0
     34a:	ac 01       	movw	r20, r24
     34c:	02 c0       	rjmp	.+4      	; 0x352 <DIO_vToggle+0x40>
     34e:	44 0f       	add	r20, r20
     350:	55 1f       	adc	r21, r21
     352:	6a 95       	dec	r22
     354:	e2 f7       	brpl	.-8      	; 0x34e <DIO_vToggle+0x3c>
     356:	ba 01       	movw	r22, r20
     358:	62 27       	eor	r22, r18
     35a:	6b bb       	out	0x1b, r22	; 27
			//PORTA ^=(1<<pinnum);
			break;
     35c:	08 95       	ret
		
		case'B':
		case'b':
		
			TOG_BIT(PORTB,pinnum);
     35e:	28 b3       	in	r18, 0x18	; 24
     360:	81 e0       	ldi	r24, 0x01	; 1
     362:	90 e0       	ldi	r25, 0x00	; 0
     364:	ac 01       	movw	r20, r24
     366:	02 c0       	rjmp	.+4      	; 0x36c <DIO_vToggle+0x5a>
     368:	44 0f       	add	r20, r20
     36a:	55 1f       	adc	r21, r21
     36c:	6a 95       	dec	r22
     36e:	e2 f7       	brpl	.-8      	; 0x368 <DIO_vToggle+0x56>
     370:	ba 01       	movw	r22, r20
     372:	62 27       	eor	r22, r18
     374:	68 bb       	out	0x18, r22	; 24
			//PORTB ^=(1<<pinnum);
			break;
     376:	08 95       	ret
		
		case'C':
		case'c':
		
			TOG_BIT(PORTC,pinnum);
     378:	25 b3       	in	r18, 0x15	; 21
     37a:	81 e0       	ldi	r24, 0x01	; 1
     37c:	90 e0       	ldi	r25, 0x00	; 0
     37e:	ac 01       	movw	r20, r24
     380:	02 c0       	rjmp	.+4      	; 0x386 <DIO_vToggle+0x74>
     382:	44 0f       	add	r20, r20
     384:	55 1f       	adc	r21, r21
     386:	6a 95       	dec	r22
     388:	e2 f7       	brpl	.-8      	; 0x382 <DIO_vToggle+0x70>
     38a:	ba 01       	movw	r22, r20
     38c:	62 27       	eor	r22, r18
     38e:	65 bb       	out	0x15, r22	; 21
			//PORTC ^=(1<<pinnum);
			break;
     390:	08 95       	ret
		
		case'D':
		case'd':
		
			TOG_BIT(PORTD,pinnum);
     392:	22 b3       	in	r18, 0x12	; 18
     394:	81 e0       	ldi	r24, 0x01	; 1
     396:	90 e0       	ldi	r25, 0x00	; 0
     398:	ac 01       	movw	r20, r24
     39a:	02 c0       	rjmp	.+4      	; 0x3a0 <DIO_vToggle+0x8e>
     39c:	44 0f       	add	r20, r20
     39e:	55 1f       	adc	r21, r21
     3a0:	6a 95       	dec	r22
     3a2:	e2 f7       	brpl	.-8      	; 0x39c <DIO_vToggle+0x8a>
     3a4:	ba 01       	movw	r22, r20
     3a6:	62 27       	eor	r22, r18
     3a8:	62 bb       	out	0x12, r22	; 18
     3aa:	08 95       	ret

000003ac <DIO_vRead>:
			 		 
	char DIO_vRead (char portname ,char pinnum)
{
	char x=0;
	
		switch(portname)
     3ac:	84 34       	cpi	r24, 0x44	; 68
     3ae:	09 f4       	brne	.+2      	; 0x3b2 <DIO_vRead+0x6>
     3b0:	4e c0       	rjmp	.+156    	; 0x44e <DIO_vRead+0xa2>
     3b2:	85 34       	cpi	r24, 0x45	; 69
     3b4:	40 f4       	brcc	.+16     	; 0x3c6 <DIO_vRead+0x1a>
     3b6:	82 34       	cpi	r24, 0x42	; 66
     3b8:	31 f1       	breq	.+76     	; 0x406 <DIO_vRead+0x5a>
     3ba:	83 34       	cpi	r24, 0x43	; 67
     3bc:	b0 f5       	brcc	.+108    	; 0x42a <DIO_vRead+0x7e>
     3be:	81 34       	cpi	r24, 0x41	; 65
     3c0:	09 f0       	breq	.+2      	; 0x3c4 <DIO_vRead+0x18>
     3c2:	57 c0       	rjmp	.+174    	; 0x472 <DIO_vRead+0xc6>
     3c4:	0e c0       	rjmp	.+28     	; 0x3e2 <DIO_vRead+0x36>
     3c6:	82 36       	cpi	r24, 0x62	; 98
     3c8:	f1 f0       	breq	.+60     	; 0x406 <DIO_vRead+0x5a>
     3ca:	83 36       	cpi	r24, 0x63	; 99
     3cc:	20 f4       	brcc	.+8      	; 0x3d6 <DIO_vRead+0x2a>
     3ce:	81 36       	cpi	r24, 0x61	; 97
     3d0:	09 f0       	breq	.+2      	; 0x3d4 <DIO_vRead+0x28>
     3d2:	4f c0       	rjmp	.+158    	; 0x472 <DIO_vRead+0xc6>
     3d4:	06 c0       	rjmp	.+12     	; 0x3e2 <DIO_vRead+0x36>
     3d6:	83 36       	cpi	r24, 0x63	; 99
     3d8:	41 f1       	breq	.+80     	; 0x42a <DIO_vRead+0x7e>
     3da:	84 36       	cpi	r24, 0x64	; 100
     3dc:	09 f0       	breq	.+2      	; 0x3e0 <DIO_vRead+0x34>
     3de:	49 c0       	rjmp	.+146    	; 0x472 <DIO_vRead+0xc6>
     3e0:	36 c0       	rjmp	.+108    	; 0x44e <DIO_vRead+0xa2>
		{
			case'A':
			case'a':
			
				x= READ_BIT_SET(PINA,pinnum);
     3e2:	29 b3       	in	r18, 0x19	; 25
     3e4:	81 e0       	ldi	r24, 0x01	; 1
     3e6:	90 e0       	ldi	r25, 0x00	; 0
     3e8:	06 2e       	mov	r0, r22
     3ea:	02 c0       	rjmp	.+4      	; 0x3f0 <DIO_vRead+0x44>
     3ec:	88 0f       	add	r24, r24
     3ee:	99 1f       	adc	r25, r25
     3f0:	0a 94       	dec	r0
     3f2:	e2 f7       	brpl	.-8      	; 0x3ec <DIO_vRead+0x40>
     3f4:	30 e0       	ldi	r19, 0x00	; 0
     3f6:	82 23       	and	r24, r18
     3f8:	93 23       	and	r25, r19
     3fa:	02 c0       	rjmp	.+4      	; 0x400 <DIO_vRead+0x54>
     3fc:	95 95       	asr	r25
     3fe:	87 95       	ror	r24
     400:	6a 95       	dec	r22
     402:	e2 f7       	brpl	.-8      	; 0x3fc <DIO_vRead+0x50>
				//x=(((PINA&(1<<(pinnum)))>>(pinnum)));
				break;
     404:	08 95       	ret
		
			case'B':
			case'b':
				
				x= READ_BIT_SET(PINB,pinnum);
     406:	26 b3       	in	r18, 0x16	; 22
     408:	81 e0       	ldi	r24, 0x01	; 1
     40a:	90 e0       	ldi	r25, 0x00	; 0
     40c:	06 2e       	mov	r0, r22
     40e:	02 c0       	rjmp	.+4      	; 0x414 <DIO_vRead+0x68>
     410:	88 0f       	add	r24, r24
     412:	99 1f       	adc	r25, r25
     414:	0a 94       	dec	r0
     416:	e2 f7       	brpl	.-8      	; 0x410 <DIO_vRead+0x64>
     418:	30 e0       	ldi	r19, 0x00	; 0
     41a:	82 23       	and	r24, r18
     41c:	93 23       	and	r25, r19
     41e:	02 c0       	rjmp	.+4      	; 0x424 <DIO_vRead+0x78>
     420:	95 95       	asr	r25
     422:	87 95       	ror	r24
     424:	6a 95       	dec	r22
     426:	e2 f7       	brpl	.-8      	; 0x420 <DIO_vRead+0x74>
				//x=(((PINB&(1<<(pinnum)))>>(pinnum)));
				break;
     428:	08 95       	ret
		
			case'C':
			case'c':
				
				x= READ_BIT_SET(PINC,pinnum);
     42a:	23 b3       	in	r18, 0x13	; 19
     42c:	81 e0       	ldi	r24, 0x01	; 1
     42e:	90 e0       	ldi	r25, 0x00	; 0
     430:	06 2e       	mov	r0, r22
     432:	02 c0       	rjmp	.+4      	; 0x438 <DIO_vRead+0x8c>
     434:	88 0f       	add	r24, r24
     436:	99 1f       	adc	r25, r25
     438:	0a 94       	dec	r0
     43a:	e2 f7       	brpl	.-8      	; 0x434 <DIO_vRead+0x88>
     43c:	30 e0       	ldi	r19, 0x00	; 0
     43e:	82 23       	and	r24, r18
     440:	93 23       	and	r25, r19
     442:	02 c0       	rjmp	.+4      	; 0x448 <DIO_vRead+0x9c>
     444:	95 95       	asr	r25
     446:	87 95       	ror	r24
     448:	6a 95       	dec	r22
     44a:	e2 f7       	brpl	.-8      	; 0x444 <DIO_vRead+0x98>
				//x=(((PINC&(1<<(pinnum)))>>(pinnum)));
				break;
     44c:	08 95       	ret
		
			case'D':
			case'd':
				
				x= READ_BIT_SET(PIND,pinnum);
     44e:	20 b3       	in	r18, 0x10	; 16
     450:	81 e0       	ldi	r24, 0x01	; 1
     452:	90 e0       	ldi	r25, 0x00	; 0
     454:	06 2e       	mov	r0, r22
     456:	02 c0       	rjmp	.+4      	; 0x45c <DIO_vRead+0xb0>
     458:	88 0f       	add	r24, r24
     45a:	99 1f       	adc	r25, r25
     45c:	0a 94       	dec	r0
     45e:	e2 f7       	brpl	.-8      	; 0x458 <DIO_vRead+0xac>
     460:	30 e0       	ldi	r19, 0x00	; 0
     462:	82 23       	and	r24, r18
     464:	93 23       	and	r25, r19
     466:	02 c0       	rjmp	.+4      	; 0x46c <DIO_vRead+0xc0>
     468:	95 95       	asr	r25
     46a:	87 95       	ror	r24
     46c:	6a 95       	dec	r22
     46e:	e2 f7       	brpl	.-8      	; 0x468 <DIO_vRead+0xbc>
				//x=(((PIND&(1<<(pinnum)))>>(pinnum)));
				break;
     470:	08 95       	ret
	}		
}		
			 		 
	char DIO_vRead (char portname ,char pinnum)
{
	char x=0;
     472:	80 e0       	ldi	r24, 0x00	; 0
				//x=(((PIND&(1<<(pinnum)))>>(pinnum)));
				break;
		}
	
				return x;	
}	
     474:	08 95       	ret

00000476 <DIO_vpullup>:
		
		
	void DIO_vpullup(char portname ,char pinnum,char conn)
{
		switch (portname)
     476:	84 34       	cpi	r24, 0x44	; 68
     478:	09 f4       	brne	.+2      	; 0x47c <DIO_vpullup+0x6>
     47a:	71 c0       	rjmp	.+226    	; 0x55e <DIO_vpullup+0xe8>
     47c:	85 34       	cpi	r24, 0x45	; 69
     47e:	48 f4       	brcc	.+18     	; 0x492 <DIO_vpullup+0x1c>
     480:	82 34       	cpi	r24, 0x42	; 66
     482:	99 f1       	breq	.+102    	; 0x4ea <DIO_vpullup+0x74>
     484:	83 34       	cpi	r24, 0x43	; 67
     486:	08 f0       	brcs	.+2      	; 0x48a <DIO_vpullup+0x14>
     488:	4d c0       	rjmp	.+154    	; 0x524 <DIO_vpullup+0xae>
     48a:	81 34       	cpi	r24, 0x41	; 65
     48c:	09 f0       	breq	.+2      	; 0x490 <DIO_vpullup+0x1a>
     48e:	83 c0       	rjmp	.+262    	; 0x596 <DIO_vpullup+0x120>
     490:	0f c0       	rjmp	.+30     	; 0x4b0 <DIO_vpullup+0x3a>
     492:	82 36       	cpi	r24, 0x62	; 98
     494:	51 f1       	breq	.+84     	; 0x4ea <DIO_vpullup+0x74>
     496:	83 36       	cpi	r24, 0x63	; 99
     498:	20 f4       	brcc	.+8      	; 0x4a2 <DIO_vpullup+0x2c>
     49a:	81 36       	cpi	r24, 0x61	; 97
     49c:	09 f0       	breq	.+2      	; 0x4a0 <DIO_vpullup+0x2a>
     49e:	7b c0       	rjmp	.+246    	; 0x596 <DIO_vpullup+0x120>
     4a0:	07 c0       	rjmp	.+14     	; 0x4b0 <DIO_vpullup+0x3a>
     4a2:	83 36       	cpi	r24, 0x63	; 99
     4a4:	09 f4       	brne	.+2      	; 0x4a8 <DIO_vpullup+0x32>
     4a6:	3e c0       	rjmp	.+124    	; 0x524 <DIO_vpullup+0xae>
     4a8:	84 36       	cpi	r24, 0x64	; 100
     4aa:	09 f0       	breq	.+2      	; 0x4ae <DIO_vpullup+0x38>
     4ac:	74 c0       	rjmp	.+232    	; 0x596 <DIO_vpullup+0x120>
     4ae:	57 c0       	rjmp	.+174    	; 0x55e <DIO_vpullup+0xe8>
		{
			case 'A':
			case 'a':
				if (conn==1)
     4b0:	41 30       	cpi	r20, 0x01	; 1
     4b2:	69 f4       	brne	.+26     	; 0x4ce <DIO_vpullup+0x58>
				{
					SET_BIT(PORTA,pinnum);
     4b4:	2b b3       	in	r18, 0x1b	; 27
     4b6:	81 e0       	ldi	r24, 0x01	; 1
     4b8:	90 e0       	ldi	r25, 0x00	; 0
     4ba:	ac 01       	movw	r20, r24
     4bc:	02 c0       	rjmp	.+4      	; 0x4c2 <DIO_vpullup+0x4c>
     4be:	44 0f       	add	r20, r20
     4c0:	55 1f       	adc	r21, r21
     4c2:	6a 95       	dec	r22
     4c4:	e2 f7       	brpl	.-8      	; 0x4be <DIO_vpullup+0x48>
     4c6:	ba 01       	movw	r22, r20
     4c8:	62 2b       	or	r22, r18
     4ca:	6b bb       	out	0x1b, r22	; 27
     4cc:	08 95       	ret
					//PORTA |= (1<<pinnum);
				}
				
				else
				{
					CLR_BIT(PORTA,pinnum);
     4ce:	2b b3       	in	r18, 0x1b	; 27
     4d0:	81 e0       	ldi	r24, 0x01	; 1
     4d2:	90 e0       	ldi	r25, 0x00	; 0
     4d4:	ac 01       	movw	r20, r24
     4d6:	02 c0       	rjmp	.+4      	; 0x4dc <DIO_vpullup+0x66>
     4d8:	44 0f       	add	r20, r20
     4da:	55 1f       	adc	r21, r21
     4dc:	6a 95       	dec	r22
     4de:	e2 f7       	brpl	.-8      	; 0x4d8 <DIO_vpullup+0x62>
     4e0:	ba 01       	movw	r22, r20
     4e2:	60 95       	com	r22
     4e4:	62 23       	and	r22, r18
     4e6:	6b bb       	out	0x1b, r22	; 27
     4e8:	08 95       	ret
				
				break;
				
			case 'B':
			case 'b':
				if (conn==1)
     4ea:	41 30       	cpi	r20, 0x01	; 1
     4ec:	69 f4       	brne	.+26     	; 0x508 <DIO_vpullup+0x92>
				{
					SET_BIT(PORTB,pinnum);
     4ee:	28 b3       	in	r18, 0x18	; 24
     4f0:	81 e0       	ldi	r24, 0x01	; 1
     4f2:	90 e0       	ldi	r25, 0x00	; 0
     4f4:	ac 01       	movw	r20, r24
     4f6:	02 c0       	rjmp	.+4      	; 0x4fc <DIO_vpullup+0x86>
     4f8:	44 0f       	add	r20, r20
     4fa:	55 1f       	adc	r21, r21
     4fc:	6a 95       	dec	r22
     4fe:	e2 f7       	brpl	.-8      	; 0x4f8 <DIO_vpullup+0x82>
     500:	ba 01       	movw	r22, r20
     502:	62 2b       	or	r22, r18
     504:	68 bb       	out	0x18, r22	; 24
     506:	08 95       	ret
					//PORTB |= (1<<pinnum);
				}
				
				else
				{
					CLR_BIT(PORTB,pinnum);
     508:	28 b3       	in	r18, 0x18	; 24
     50a:	81 e0       	ldi	r24, 0x01	; 1
     50c:	90 e0       	ldi	r25, 0x00	; 0
     50e:	ac 01       	movw	r20, r24
     510:	02 c0       	rjmp	.+4      	; 0x516 <DIO_vpullup+0xa0>
     512:	44 0f       	add	r20, r20
     514:	55 1f       	adc	r21, r21
     516:	6a 95       	dec	r22
     518:	e2 f7       	brpl	.-8      	; 0x512 <DIO_vpullup+0x9c>
     51a:	ba 01       	movw	r22, r20
     51c:	60 95       	com	r22
     51e:	62 23       	and	r22, r18
     520:	68 bb       	out	0x18, r22	; 24
     522:	08 95       	ret
				break;
				
			case 'C':
			case 'c':
				
				if (conn==1)
     524:	41 30       	cpi	r20, 0x01	; 1
     526:	69 f4       	brne	.+26     	; 0x542 <DIO_vpullup+0xcc>
				{
					SET_BIT(PORTC,pinnum);
     528:	25 b3       	in	r18, 0x15	; 21
     52a:	81 e0       	ldi	r24, 0x01	; 1
     52c:	90 e0       	ldi	r25, 0x00	; 0
     52e:	ac 01       	movw	r20, r24
     530:	02 c0       	rjmp	.+4      	; 0x536 <DIO_vpullup+0xc0>
     532:	44 0f       	add	r20, r20
     534:	55 1f       	adc	r21, r21
     536:	6a 95       	dec	r22
     538:	e2 f7       	brpl	.-8      	; 0x532 <DIO_vpullup+0xbc>
     53a:	ba 01       	movw	r22, r20
     53c:	62 2b       	or	r22, r18
     53e:	65 bb       	out	0x15, r22	; 21
     540:	08 95       	ret
					//PORTC |= (1<<pinnum);
				}
				
				else
				{
					CLR_BIT(PORTC,pinnum);
     542:	25 b3       	in	r18, 0x15	; 21
     544:	81 e0       	ldi	r24, 0x01	; 1
     546:	90 e0       	ldi	r25, 0x00	; 0
     548:	ac 01       	movw	r20, r24
     54a:	02 c0       	rjmp	.+4      	; 0x550 <DIO_vpullup+0xda>
     54c:	44 0f       	add	r20, r20
     54e:	55 1f       	adc	r21, r21
     550:	6a 95       	dec	r22
     552:	e2 f7       	brpl	.-8      	; 0x54c <DIO_vpullup+0xd6>
     554:	ba 01       	movw	r22, r20
     556:	60 95       	com	r22
     558:	62 23       	and	r22, r18
     55a:	65 bb       	out	0x15, r22	; 21
     55c:	08 95       	ret
				break;
				
			case 'D':
			case 'd':
				
				if (conn==1)
     55e:	41 30       	cpi	r20, 0x01	; 1
     560:	69 f4       	brne	.+26     	; 0x57c <DIO_vpullup+0x106>
				{
					SET_BIT(PORTD,pinnum);
     562:	22 b3       	in	r18, 0x12	; 18
     564:	81 e0       	ldi	r24, 0x01	; 1
     566:	90 e0       	ldi	r25, 0x00	; 0
     568:	ac 01       	movw	r20, r24
     56a:	02 c0       	rjmp	.+4      	; 0x570 <DIO_vpullup+0xfa>
     56c:	44 0f       	add	r20, r20
     56e:	55 1f       	adc	r21, r21
     570:	6a 95       	dec	r22
     572:	e2 f7       	brpl	.-8      	; 0x56c <DIO_vpullup+0xf6>
     574:	ba 01       	movw	r22, r20
     576:	62 2b       	or	r22, r18
     578:	62 bb       	out	0x12, r22	; 18
     57a:	08 95       	ret
					//PORTD |= (1<<pinnum);
				}
				
				else
				{
					CLR_BIT(PORTD,pinnum);
     57c:	22 b3       	in	r18, 0x12	; 18
     57e:	81 e0       	ldi	r24, 0x01	; 1
     580:	90 e0       	ldi	r25, 0x00	; 0
     582:	ac 01       	movw	r20, r24
     584:	02 c0       	rjmp	.+4      	; 0x58a <DIO_vpullup+0x114>
     586:	44 0f       	add	r20, r20
     588:	55 1f       	adc	r21, r21
     58a:	6a 95       	dec	r22
     58c:	e2 f7       	brpl	.-8      	; 0x586 <DIO_vpullup+0x110>
     58e:	ba 01       	movw	r22, r20
     590:	60 95       	com	r22
     592:	62 23       	and	r22, r18
     594:	62 bb       	out	0x12, r22	; 18
     596:	08 95       	ret

00000598 <DIO_vPORTSET>:
		}			 
}
				
	void DIO_vPORTSET(char portName , char val)				
{
		switch(portName)
     598:	82 34       	cpi	r24, 0x42	; 66
     59a:	61 f0       	breq	.+24     	; 0x5b4 <DIO_vPORTSET+0x1c>
     59c:	83 34       	cpi	r24, 0x43	; 67
     59e:	18 f4       	brcc	.+6      	; 0x5a6 <DIO_vPORTSET+0xe>
     5a0:	81 34       	cpi	r24, 0x41	; 65
     5a2:	69 f4       	brne	.+26     	; 0x5be <DIO_vPORTSET+0x26>
     5a4:	05 c0       	rjmp	.+10     	; 0x5b0 <DIO_vPORTSET+0x18>
     5a6:	83 34       	cpi	r24, 0x43	; 67
     5a8:	39 f0       	breq	.+14     	; 0x5b8 <DIO_vPORTSET+0x20>
     5aa:	84 34       	cpi	r24, 0x44	; 68
     5ac:	41 f4       	brne	.+16     	; 0x5be <DIO_vPORTSET+0x26>
     5ae:	06 c0       	rjmp	.+12     	; 0x5bc <DIO_vPORTSET+0x24>
		{
				case 'A':
				
					PORTA = val;	
     5b0:	6b bb       	out	0x1b, r22	; 27
					break;
     5b2:	08 95       	ret
					
				case 'B':
				
					PORTB = val;
     5b4:	68 bb       	out	0x18, r22	; 24
					break;
     5b6:	08 95       	ret
					
				case 'C':
					PORTC = val;
     5b8:	65 bb       	out	0x15, r22	; 21
					break;
     5ba:	08 95       	ret
					
				case 'D':
					PORTD = val;
     5bc:	62 bb       	out	0x12, r22	; 18
     5be:	08 95       	ret

000005c0 <EEPROM_vWrite>:
//#include <avr/io.h>
//#include "EEPROM.h"
#include "COMMON_CONFIG.h"
	void EEPROM_vWrite(char data, unsigned short addrs)
{
		while (READ_BIT_SET(EECR,EEWE)==1)
     5c0:	e1 99       	sbic	0x1c, 1	; 28
     5c2:	fe cf       	rjmp	.-4      	; 0x5c0 <EEPROM_vWrite>
		{
			/*to wait the first wirte instruction */
		} 
		
		EEDR= data;
     5c4:	8d bb       	out	0x1d, r24	; 29
		
		EEAR=addrs;
     5c6:	7f bb       	out	0x1f, r23	; 31
     5c8:	6e bb       	out	0x1e, r22	; 30
		
		SET_BIT(EECR,EEMWE);
     5ca:	e2 9a       	sbi	0x1c, 2	; 28
		SET_BIT(EECR,EEWE);
     5cc:	e1 9a       	sbi	0x1c, 1	; 28
	
		
}
     5ce:	08 95       	ret

000005d0 <EEPROM_vRead>:

	unsigned char EEPROM_vRead(unsigned short addrs)
{ 
 		while (READ_BIT_SET(EECR,EEWE)==1)
     5d0:	e1 99       	sbic	0x1c, 1	; 28
     5d2:	fe cf       	rjmp	.-4      	; 0x5d0 <EEPROM_vRead>
		 {
			 /*to check no one write while i read*/
		 }
			  
		EEAR = addrs;
     5d4:	9f bb       	out	0x1f, r25	; 31
     5d6:	8e bb       	out	0x1e, r24	; 30
		SET_BIT(EEDR,EERE);
     5d8:	e8 9a       	sbi	0x1d, 0	; 29
		return EEDR;
     5da:	8d b3       	in	r24, 0x1d	; 29
     5dc:	08 95       	ret

000005de <tot_inti>:

#include "COMMON_CONFIG.h"

void tot_inti()
{
	KEYPAD_VINIT();
     5de:	0e 94 93 0a 	call	0x1526	; 0x1526 <KEYPAD_VINIT>
	SPI_vINTMASTRE();
     5e2:	0e 94 58 0f 	call	0x1eb0	; 0x1eb0 <SPI_vINTMASTRE>
	//SPI_vINTSlave();
	LCD_vint();
     5e6:	0e 94 75 0b 	call	0x16ea	; 0x16ea <LCD_vint>
	ADC_vint();
     5ea:	0e 94 49 00 	call	0x92	; 0x92 <ADC_vint>
	TIMER_vInt();
     5ee:	0e 94 72 0f 	call	0x1ee4	; 0x1ee4 <TIMER_vInt>
	
	
}
     5f2:	08 95       	ret

000005f4 <Welcome_Message>:
//This function prints a welcome message to the user
void Welcome_Message()
{
	LCD_vSDD("Welcome");
     5f4:	80 e6       	ldi	r24, 0x60	; 96
     5f6:	90 e0       	ldi	r25, 0x00	; 0
     5f8:	0e 94 90 0b 	call	0x1720	; 0x1720 <LCD_vSDD>
	LCD_vCLEARS();
     5fc:	0e 94 e5 0b 	call	0x17ca	; 0x17ca <LCD_vCLEARS>
	
}
     600:	08 95       	ret

00000602 <LCD_StrtDis>:
	char *ptr1 = arr1 ;
	char *ptr2 = arr2 ;
	char key ;
	
	
	LCD_vSendCmd(0x01);
     602:	81 e0       	ldi	r24, 0x01	; 1
     604:	0e 94 70 0b 	call	0x16e0	; 0x16e0 <LCD_vSendCmd>
}


char LCD_StrtDis()
{
	char arr1 = "0 : Guest Mode" ;
     608:	88 e6       	ldi	r24, 0x68	; 104
     60a:	90 e0       	ldi	r25, 0x00	; 0
	char *ptr2 = arr2 ;
	char key ;
	
	
	LCD_vSendCmd(0x01);
	LCD_vSDD(ptr1);
     60c:	90 e0       	ldi	r25, 0x00	; 0
     60e:	0e 94 90 0b 	call	0x1720	; 0x1720 <LCD_vSDD>
	LCD_vMOVECur(2,1);
     612:	82 e0       	ldi	r24, 0x02	; 2
     614:	61 e0       	ldi	r22, 0x01	; 1
     616:	0e 94 9f 0b 	call	0x173e	; 0x173e <LCD_vMOVECur>


char LCD_StrtDis()
{
	char arr1 = "0 : Guest Mode" ;
	char arr2 = "1 : Admin Mode" ;
     61a:	87 e7       	ldi	r24, 0x77	; 119
     61c:	90 e0       	ldi	r25, 0x00	; 0
	
	
	LCD_vSendCmd(0x01);
	LCD_vSDD(ptr1);
	LCD_vMOVECur(2,1);
	LCD_vSDD(ptr2);
     61e:	90 e0       	ldi	r25, 0x00	; 0
     620:	0e 94 90 0b 	call	0x1720	; 0x1720 <LCD_vSDD>
	
	/* take from keypad 0 or 1 */
	/* Wait until a key pressed */
	while(KEYPAD_u8SCAN() == NoScan);
     624:	0e 94 d0 0a 	call	0x15a0	; 0x15a0 <KEYPAD_u8SCAN>
     628:	8f 3f       	cpi	r24, 0xFF	; 255
     62a:	e1 f3       	breq	.-8      	; 0x624 <LCD_StrtDis+0x22>
	key = KEYPAD_u8SCAN();
     62c:	0e 94 d0 0a 	call	0x15a0	; 0x15a0 <KEYPAD_u8SCAN>
	
	PTR_COUNT->pw_count = 0 ;
     630:	e0 91 79 01 	lds	r30, 0x0179
     634:	f0 91 7a 01 	lds	r31, 0x017A
     638:	12 82       	std	Z+2, r1	; 0x02
     63a:	11 82       	std	Z+1, r1	; 0x01
	while( (PTR_COUNT->pw_count) < 250 );
     63c:	e0 91 79 01 	lds	r30, 0x0179
     640:	f0 91 7a 01 	lds	r31, 0x017A
     644:	21 81       	ldd	r18, Z+1	; 0x01
     646:	32 81       	ldd	r19, Z+2	; 0x02
     648:	2a 3f       	cpi	r18, 0xFA	; 250
     64a:	31 05       	cpc	r19, r1
     64c:	d8 f3       	brcs	.-10     	; 0x644 <LCD_StrtDis+0x42>
	return key ;
}
     64e:	08 95       	ret

00000650 <LCD_PassDis1>:


char * LCD_PassDis1()
{
     650:	ef 92       	push	r14
     652:	ff 92       	push	r15
     654:	1f 93       	push	r17
     656:	cf 93       	push	r28
     658:	df 93       	push	r29
     65a:	00 d0       	rcall	.+0      	; 0x65c <LCD_PassDis1+0xc>
     65c:	00 d0       	rcall	.+0      	; 0x65e <LCD_PassDis1+0xe>
     65e:	cd b7       	in	r28, 0x3d	; 61
     660:	de b7       	in	r29, 0x3e	; 62
	char pass[4] ;
	char *Pw_ptr = pass ;
	char x;
	
	
	LCD_vSendCmd(0x01);
     662:	81 e0       	ldi	r24, 0x01	; 1
     664:	0e 94 70 0b 	call	0x16e0	; 0x16e0 <LCD_vSendCmd>
}


char * LCD_PassDis1()
{
	char arr0 = "Enter Password" ;
     668:	86 e8       	ldi	r24, 0x86	; 134
     66a:	90 e0       	ldi	r25, 0x00	; 0
	char *Pw_ptr = pass ;
	char x;
	
	
	LCD_vSendCmd(0x01);
	LCD_vSDD(ptr0);
     66c:	90 e0       	ldi	r25, 0x00	; 0
     66e:	0e 94 90 0b 	call	0x1720	; 0x1720 <LCD_vSDD>
	LCD_vMOVECur(2,1);
     672:	82 e0       	ldi	r24, 0x02	; 2
     674:	61 e0       	ldi	r22, 0x01	; 1
     676:	0e 94 9f 0b 	call	0x173e	; 0x173e <LCD_vMOVECur>
     67a:	7e 01       	movw	r14, r28
     67c:	08 94       	sec
     67e:	e1 1c       	adc	r14, r1
     680:	f1 1c       	adc	r15, r1
	
	for(x = 0 ; x < 4 ; ++x)
     682:	10 e0       	ldi	r17, 0x00	; 0
	{	
		/* WAIT UNTILL A KEY TO BE PRESSED */
		while(KEYPAD_u8SCAN() == NoScan);
     684:	0e 94 d0 0a 	call	0x15a0	; 0x15a0 <KEYPAD_u8SCAN>
     688:	8f 3f       	cpi	r24, 0xFF	; 255
     68a:	e1 f3       	breq	.-8      	; 0x684 <LCD_PassDis1+0x34>
		
		/* SEND THE PRESSED KEY TO AN ARRAY OF 4 CHAR */
		pass[x] =  KEYPAD_u8SCAN();
     68c:	0e 94 d0 0a 	call	0x15a0	; 0x15a0 <KEYPAD_u8SCAN>
     690:	f7 01       	movw	r30, r14
     692:	81 93       	st	Z+, r24
     694:	7f 01       	movw	r14, r30
		
		/* SEND THE PRESSED KEY TO THE LCD */
		LCD_vsenddata( pass[x] );
     696:	0e 94 8b 0b 	call	0x1716	; 0x1716 <LCD_vsenddata>
		
		if(x != 3){
     69a:	13 30       	cpi	r17, 0x03	; 3
     69c:	a9 f1       	breq	.+106    	; 0x708 <LCD_PassDis1+0xb8>
			/*	DELAY OF * SECURITY SYMPOL	*/
			PTR_COUNT->pw_count = 0 ;
     69e:	e0 91 79 01 	lds	r30, 0x0179
     6a2:	f0 91 7a 01 	lds	r31, 0x017A
     6a6:	12 82       	std	Z+2, r1	; 0x02
     6a8:	11 82       	std	Z+1, r1	; 0x01
			while( (PTR_COUNT->pw_count) < 500 );
     6aa:	e0 91 79 01 	lds	r30, 0x0179
     6ae:	f0 91 7a 01 	lds	r31, 0x017A
     6b2:	81 81       	ldd	r24, Z+1	; 0x01
     6b4:	92 81       	ldd	r25, Z+2	; 0x02
     6b6:	21 e0       	ldi	r18, 0x01	; 1
     6b8:	84 3f       	cpi	r24, 0xF4	; 244
     6ba:	92 07       	cpc	r25, r18
     6bc:	d0 f3       	brcs	.-12     	; 0x6b2 <LCD_PassDis1+0x62>
		}
		
		LCD_vMOVECur(2, x+1);
     6be:	1f 5f       	subi	r17, 0xFF	; 255
     6c0:	82 e0       	ldi	r24, 0x02	; 2
     6c2:	61 2f       	mov	r22, r17
     6c4:	0e 94 9f 0b 	call	0x173e	; 0x173e <LCD_vMOVECur>
		LCD_vsenddata('*');
     6c8:	8a e2       	ldi	r24, 0x2A	; 42
     6ca:	0e 94 8b 0b 	call	0x1716	; 0x1716 <LCD_vsenddata>
	
	LCD_vSendCmd(0x01);
	LCD_vSDD(ptr0);
	LCD_vMOVECur(2,1);
	
	for(x = 0 ; x < 4 ; ++x)
     6ce:	14 30       	cpi	r17, 0x04	; 4
     6d0:	c9 f6       	brne	.-78     	; 0x684 <LCD_PassDis1+0x34>
		LCD_vMOVECur(2, x+1);
		LCD_vsenddata('*');
	
	}
	/*  WAIT 250ms AFTER I SENDD THE LAST *	*/
	PTR_COUNT->pw_count = 0 ;
     6d2:	e0 91 79 01 	lds	r30, 0x0179
     6d6:	f0 91 7a 01 	lds	r31, 0x017A
     6da:	12 82       	std	Z+2, r1	; 0x02
     6dc:	11 82       	std	Z+1, r1	; 0x01
	while( (PTR_COUNT->pw_count) < 250 );
     6de:	e0 91 79 01 	lds	r30, 0x0179
     6e2:	f0 91 7a 01 	lds	r31, 0x017A
     6e6:	81 81       	ldd	r24, Z+1	; 0x01
     6e8:	92 81       	ldd	r25, Z+2	; 0x02
     6ea:	8a 3f       	cpi	r24, 0xFA	; 250
     6ec:	91 05       	cpc	r25, r1
     6ee:	d8 f3       	brcs	.-10     	; 0x6e6 <LCD_PassDis1+0x96>
	
	return Pw_ptr ;
}
     6f0:	ce 01       	movw	r24, r28
     6f2:	01 96       	adiw	r24, 0x01	; 1
     6f4:	0f 90       	pop	r0
     6f6:	0f 90       	pop	r0
     6f8:	0f 90       	pop	r0
     6fa:	0f 90       	pop	r0
     6fc:	df 91       	pop	r29
     6fe:	cf 91       	pop	r28
     700:	1f 91       	pop	r17
     702:	ff 90       	pop	r15
     704:	ef 90       	pop	r14
     706:	08 95       	ret
			/*	DELAY OF * SECURITY SYMPOL	*/
			PTR_COUNT->pw_count = 0 ;
			while( (PTR_COUNT->pw_count) < 500 );
		}
		
		LCD_vMOVECur(2, x+1);
     708:	61 2f       	mov	r22, r17
     70a:	6f 5f       	subi	r22, 0xFF	; 255
     70c:	82 e0       	ldi	r24, 0x02	; 2
     70e:	0e 94 9f 0b 	call	0x173e	; 0x173e <LCD_vMOVECur>
		LCD_vsenddata('*');
     712:	8a e2       	ldi	r24, 0x2A	; 42
     714:	0e 94 8b 0b 	call	0x1716	; 0x1716 <LCD_vsenddata>
     718:	dc cf       	rjmp	.-72     	; 0x6d2 <LCD_PassDis1+0x82>

0000071a <LCD_PassDis2>:
	return Pw_ptr ;
}


char * LCD_PassDis2()
{
     71a:	ef 92       	push	r14
     71c:	ff 92       	push	r15
     71e:	1f 93       	push	r17
     720:	cf 93       	push	r28
     722:	df 93       	push	r29
     724:	00 d0       	rcall	.+0      	; 0x726 <LCD_PassDis2+0xc>
     726:	00 d0       	rcall	.+0      	; 0x728 <LCD_PassDis2+0xe>
     728:	cd b7       	in	r28, 0x3d	; 61
     72a:	de b7       	in	r29, 0x3e	; 62
	char pass[4] ;
	char *Pw_ptr = pass ;
	char x;
	
	
	LCD_vMOVECur(2,1);
     72c:	82 e0       	ldi	r24, 0x02	; 2
     72e:	61 e0       	ldi	r22, 0x01	; 1
     730:	0e 94 9f 0b 	call	0x173e	; 0x173e <LCD_vMOVECur>
     734:	7e 01       	movw	r14, r28
     736:	08 94       	sec
     738:	e1 1c       	adc	r14, r1
     73a:	f1 1c       	adc	r15, r1
	
	for(x = 0 ; x < 4 ; ++x)
     73c:	10 e0       	ldi	r17, 0x00	; 0
	{
		while( KEYPAD_u8SCAN() == NoScan);
     73e:	0e 94 d0 0a 	call	0x15a0	; 0x15a0 <KEYPAD_u8SCAN>
     742:	8f 3f       	cpi	r24, 0xFF	; 255
     744:	e1 f3       	breq	.-8      	; 0x73e <LCD_PassDis2+0x24>
		
		pass[x] =  KEYPAD_u8SCAN(); ;
     746:	0e 94 d0 0a 	call	0x15a0	; 0x15a0 <KEYPAD_u8SCAN>
     74a:	f7 01       	movw	r30, r14
     74c:	81 93       	st	Z+, r24
     74e:	7f 01       	movw	r14, r30
		LCD_vsenddata( pass[x] );
     750:	0e 94 8b 0b 	call	0x1716	; 0x1716 <LCD_vsenddata>
		
		if(x != 3)
     754:	13 30       	cpi	r17, 0x03	; 3
     756:	31 f1       	breq	.+76     	; 0x7a4 <LCD_PassDis2+0x8a>
		{
			/*	DELAY OF * SECURITY SYMPOL	*/
			PTR_COUNT->pw_count = 0 ;
     758:	e0 91 79 01 	lds	r30, 0x0179
     75c:	f0 91 7a 01 	lds	r31, 0x017A
     760:	12 82       	std	Z+2, r1	; 0x02
     762:	11 82       	std	Z+1, r1	; 0x01
			while( (PTR_COUNT->pw_count) < 500 );
     764:	e0 91 79 01 	lds	r30, 0x0179
     768:	f0 91 7a 01 	lds	r31, 0x017A
     76c:	81 81       	ldd	r24, Z+1	; 0x01
     76e:	92 81       	ldd	r25, Z+2	; 0x02
     770:	21 e0       	ldi	r18, 0x01	; 1
     772:	84 3f       	cpi	r24, 0xF4	; 244
     774:	92 07       	cpc	r25, r18
     776:	d0 f3       	brcs	.-12     	; 0x76c <LCD_PassDis2+0x52>
		}
		
		LCD_vMOVECur(2 , x+1);
     778:	1f 5f       	subi	r17, 0xFF	; 255
     77a:	82 e0       	ldi	r24, 0x02	; 2
     77c:	61 2f       	mov	r22, r17
     77e:	0e 94 9f 0b 	call	0x173e	; 0x173e <LCD_vMOVECur>
		LCD_vsenddata('*');
     782:	8a e2       	ldi	r24, 0x2A	; 42
     784:	0e 94 8b 0b 	call	0x1716	; 0x1716 <LCD_vsenddata>
	char x;
	
	
	LCD_vMOVECur(2,1);
	
	for(x = 0 ; x < 4 ; ++x)
     788:	14 30       	cpi	r17, 0x04	; 4
     78a:	c9 f6       	brne	.-78     	; 0x73e <LCD_PassDis2+0x24>
		
		LCD_vMOVECur(2 , x+1);
		LCD_vsenddata('*');
	}
	return Pw_ptr ;
}
     78c:	ce 01       	movw	r24, r28
     78e:	01 96       	adiw	r24, 0x01	; 1
     790:	0f 90       	pop	r0
     792:	0f 90       	pop	r0
     794:	0f 90       	pop	r0
     796:	0f 90       	pop	r0
     798:	df 91       	pop	r29
     79a:	cf 91       	pop	r28
     79c:	1f 91       	pop	r17
     79e:	ff 90       	pop	r15
     7a0:	ef 90       	pop	r14
     7a2:	08 95       	ret
			/*	DELAY OF * SECURITY SYMPOL	*/
			PTR_COUNT->pw_count = 0 ;
			while( (PTR_COUNT->pw_count) < 500 );
		}
		
		LCD_vMOVECur(2 , x+1);
     7a4:	61 2f       	mov	r22, r17
     7a6:	6f 5f       	subi	r22, 0xFF	; 255
     7a8:	82 e0       	ldi	r24, 0x02	; 2
     7aa:	0e 94 9f 0b 	call	0x173e	; 0x173e <LCD_vMOVECur>
		LCD_vsenddata('*');
     7ae:	8a e2       	ldi	r24, 0x2A	; 42
     7b0:	0e 94 8b 0b 	call	0x1716	; 0x1716 <LCD_vsenddata>
     7b4:	eb cf       	rjmp	.-42     	; 0x78c <LCD_PassDis2+0x72>

000007b6 <TryAgain>:


//This function for Try again

char TryAgain(char Blocked)
{
     7b6:	cf 93       	push	r28
     7b8:	df 93       	push	r29
     7ba:	cd b7       	in	r28, 0x3d	; 61
     7bc:	de b7       	in	r29, 0x3e	; 62
     7be:	a1 97       	sbiw	r28, 0x21	; 33
     7c0:	0f b6       	in	r0, 0x3f	; 63
     7c2:	f8 94       	cli
     7c4:	de bf       	out	0x3e, r29	; 62
     7c6:	0f be       	out	0x3f, r0	; 63
     7c8:	cd bf       	out	0x3d, r28	; 61
	char arr1[] = "Failed Once";
     7ca:	de 01       	movw	r26, r28
     7cc:	11 96       	adiw	r26, 0x01	; 1
     7ce:	e5 e9       	ldi	r30, 0x95	; 149
     7d0:	f0 e0       	ldi	r31, 0x00	; 0
     7d2:	9c e0       	ldi	r25, 0x0C	; 12
     7d4:	01 90       	ld	r0, Z+
     7d6:	0d 92       	st	X+, r0
     7d8:	91 50       	subi	r25, 0x01	; 1
     7da:	e1 f7       	brne	.-8      	; 0x7d4 <TryAgain+0x1e>
	char arr2[] = "Failed Twice";
     7dc:	de 01       	movw	r26, r28
     7de:	1d 96       	adiw	r26, 0x0d	; 13
     7e0:	e1 ea       	ldi	r30, 0xA1	; 161
     7e2:	f0 e0       	ldi	r31, 0x00	; 0
     7e4:	9d e0       	ldi	r25, 0x0D	; 13
     7e6:	01 90       	ld	r0, Z+
     7e8:	0d 92       	st	X+, r0
     7ea:	91 50       	subi	r25, 0x01	; 1
     7ec:	e1 f7       	brne	.-8      	; 0x7e6 <TryAgain+0x30>
	char arr3[] = "BLOCKED";
     7ee:	de 01       	movw	r26, r28
     7f0:	5a 96       	adiw	r26, 0x1a	; 26
     7f2:	ee ea       	ldi	r30, 0xAE	; 174
     7f4:	f0 e0       	ldi	r31, 0x00	; 0
     7f6:	98 e0       	ldi	r25, 0x08	; 8
     7f8:	01 90       	ld	r0, Z+
     7fa:	0d 92       	st	X+, r0
     7fc:	91 50       	subi	r25, 0x01	; 1
     7fe:	e1 f7       	brne	.-8      	; 0x7f8 <TryAgain+0x42>
	char *BLK_ptr ;
	
	switch(Blocked)
     800:	82 30       	cpi	r24, 0x02	; 2
     802:	31 f1       	breq	.+76     	; 0x850 <TryAgain+0x9a>
     804:	83 30       	cpi	r24, 0x03	; 3
     806:	09 f4       	brne	.+2      	; 0x80a <TryAgain+0x54>
     808:	45 c0       	rjmp	.+138    	; 0x894 <__stack+0x35>
     80a:	81 30       	cpi	r24, 0x01	; 1
     80c:	09 f0       	breq	.+2      	; 0x810 <TryAgain+0x5a>
     80e:	4b c0       	rjmp	.+150    	; 0x8a6 <__stack+0x47>
	{
		case 1:
		BLK_ptr = arr1;
		LCD_vSendCmd(0x01);
     810:	0e 94 70 0b 	call	0x16e0	; 0x16e0 <LCD_vSendCmd>
		LCD_vSDD(BLK_ptr);
     814:	ce 01       	movw	r24, r28
     816:	01 96       	adiw	r24, 0x01	; 1
     818:	0e 94 90 0b 	call	0x1720	; 0x1720 <LCD_vSDD>
		return Password_inFun(LCD_PassDis2());
     81c:	0e 94 8d 03 	call	0x71a	; 0x71a <LCD_PassDis2>
     820:	e8 2f       	mov	r30, r24
     822:	f9 2f       	mov	r31, r25
     824:	34 e0       	ldi	r19, 0x04	; 4
/* FUNCTION THAT MAKES A SIMPLE EQUATION TO SAVE THE PASSWORD IN 1 BYTE	*/

char inline Password_inFun(char * Pw_ptr){
	char i,x , j = 4 ;
	
	char Password = 0;
     826:	80 e0       	ldi	r24, 0x00	; 0


/* FUNCTION THAT MAKES A SIMPLE EQUATION TO SAVE THE PASSWORD IN 1 BYTE	*/

char inline Password_inFun(char * Pw_ptr){
	char i,x , j = 4 ;
     828:	94 e0       	ldi	r25, 0x04	; 4
	
	char Password = 0;
	for( i = 0 ; i < 4 ; ++i , --j)
	{
		x = 1 ;
		for( ; j > 1 ; --j){
     82a:	51 e0       	ldi	r21, 0x01	; 1
     82c:	0d c0       	rjmp	.+26     	; 0x848 <TryAgain+0x92>
     82e:	25 2f       	mov	r18, r21
			x *= 2 ;
     830:	22 0f       	add	r18, r18
	
	char Password = 0;
	for( i = 0 ; i < 4 ; ++i , --j)
	{
		x = 1 ;
		for( ; j > 1 ; --j){
     832:	91 50       	subi	r25, 0x01	; 1
     834:	91 30       	cpi	r25, 0x01	; 1
     836:	e1 f7       	brne	.-8      	; 0x830 <TryAgain+0x7a>
			x *= 2 ;
		}
		Password += (*(Pw_ptr + i)) * x ;
     838:	41 91       	ld	r20, Z+
     83a:	24 9f       	mul	r18, r20
     83c:	20 2d       	mov	r18, r0
     83e:	11 24       	eor	r1, r1
     840:	82 0f       	add	r24, r18

char inline Password_inFun(char * Pw_ptr){
	char i,x , j = 4 ;
	
	char Password = 0;
	for( i = 0 ; i < 4 ; ++i , --j)
     842:	91 50       	subi	r25, 0x01	; 1
     844:	31 50       	subi	r19, 0x01	; 1
     846:	79 f1       	breq	.+94     	; 0x8a6 <__stack+0x47>
	{
		x = 1 ;
		for( ; j > 1 ; --j){
     848:	92 30       	cpi	r25, 0x02	; 2
     84a:	88 f7       	brcc	.-30     	; 0x82e <TryAgain+0x78>
     84c:	25 2f       	mov	r18, r21
     84e:	f4 cf       	rjmp	.-24     	; 0x838 <TryAgain+0x82>
		break;
		
		case 2:
		BLK_ptr = arr2 ;
		LCD_vSendCmd(0x01);
     850:	81 e0       	ldi	r24, 0x01	; 1
     852:	0e 94 70 0b 	call	0x16e0	; 0x16e0 <LCD_vSendCmd>
		LCD_vSDD(BLK_ptr);
     856:	ce 01       	movw	r24, r28
     858:	0d 96       	adiw	r24, 0x0d	; 13
     85a:	0e 94 90 0b 	call	0x1720	; 0x1720 <LCD_vSDD>
		return Password_inFun(LCD_PassDis2());
     85e:	0e 94 8d 03 	call	0x71a	; 0x71a <LCD_PassDis2>
     862:	e8 2f       	mov	r30, r24
     864:	f9 2f       	mov	r31, r25
/* FUNCTION THAT MAKES A SIMPLE EQUATION TO SAVE THE PASSWORD IN 1 BYTE	*/

char inline Password_inFun(char * Pw_ptr){
	char i,x , j = 4 ;
	
	char Password = 0;
     866:	80 e0       	ldi	r24, 0x00	; 0
	for( i = 0 ; i < 4 ; ++i , --j)
     868:	30 e0       	ldi	r19, 0x00	; 0


/* FUNCTION THAT MAKES A SIMPLE EQUATION TO SAVE THE PASSWORD IN 1 BYTE	*/

char inline Password_inFun(char * Pw_ptr){
	char i,x , j = 4 ;
     86a:	94 e0       	ldi	r25, 0x04	; 4
	
	char Password = 0;
	for( i = 0 ; i < 4 ; ++i , --j)
	{
		x = 1 ;
		for( ; j > 1 ; --j){
     86c:	51 e0       	ldi	r21, 0x01	; 1
     86e:	0e c0       	rjmp	.+28     	; 0x88c <__stack+0x2d>
     870:	25 2f       	mov	r18, r21
			x *= 2 ;
     872:	22 0f       	add	r18, r18
	
	char Password = 0;
	for( i = 0 ; i < 4 ; ++i , --j)
	{
		x = 1 ;
		for( ; j > 1 ; --j){
     874:	91 50       	subi	r25, 0x01	; 1
     876:	91 30       	cpi	r25, 0x01	; 1
     878:	e1 f7       	brne	.-8      	; 0x872 <__stack+0x13>
			x *= 2 ;
		}
		Password += (*(Pw_ptr + i)) * x ;
     87a:	41 91       	ld	r20, Z+
     87c:	24 9f       	mul	r18, r20
     87e:	20 2d       	mov	r18, r0
     880:	11 24       	eor	r1, r1
     882:	82 0f       	add	r24, r18

char inline Password_inFun(char * Pw_ptr){
	char i,x , j = 4 ;
	
	char Password = 0;
	for( i = 0 ; i < 4 ; ++i , --j)
     884:	3f 5f       	subi	r19, 0xFF	; 255
     886:	91 50       	subi	r25, 0x01	; 1
     888:	34 30       	cpi	r19, 0x04	; 4
     88a:	69 f0       	breq	.+26     	; 0x8a6 <__stack+0x47>
	{
		x = 1 ;
		for( ; j > 1 ; --j){
     88c:	92 30       	cpi	r25, 0x02	; 2
     88e:	80 f7       	brcc	.-32     	; 0x870 <__stack+0x11>
     890:	25 2f       	mov	r18, r21
     892:	f3 cf       	rjmp	.-26     	; 0x87a <__stack+0x1b>
		break;
		
		case 3:
		BLK_ptr = arr3 ;
		LCD_vSendCmd(0x01);
     894:	81 e0       	ldi	r24, 0x01	; 1
     896:	0e 94 70 0b 	call	0x16e0	; 0x16e0 <LCD_vSendCmd>
		LCD_vSDD(BLK_ptr);
     89a:	ce 01       	movw	r24, r28
     89c:	4a 96       	adiw	r24, 0x1a	; 26
     89e:	0e 94 90 0b 	call	0x1720	; 0x1720 <LCD_vSDD>
		return stop;
     8a2:	80 e0       	ldi	r24, 0x00	; 0
     8a4:	00 c0       	rjmp	.+0      	; 0x8a6 <__stack+0x47>
		break;
	}
}
     8a6:	a1 96       	adiw	r28, 0x21	; 33
     8a8:	0f b6       	in	r0, 0x3f	; 63
     8aa:	f8 94       	cli
     8ac:	de bf       	out	0x3e, r29	; 62
     8ae:	0f be       	out	0x3f, r0	; 63
     8b0:	cd bf       	out	0x3d, r28	; 61
     8b2:	df 91       	pop	r29
     8b4:	cf 91       	pop	r28
     8b6:	08 95       	ret

000008b8 <Check_Password_Correct>:

//This function for if the password correct or not
char Check_Password_Correct ()
{
     8b8:	ef 92       	push	r14
     8ba:	ff 92       	push	r15
     8bc:	1f 93       	push	r17
     8be:	cf 93       	push	r28
     8c0:	df 93       	push	r29
	char BlockTime = 0 ;
	char Pass ;
	Pass = Password_inFun(LCD_PassDis1());
     8c2:	0e 94 28 03 	call	0x650	; 0x650 <LCD_PassDis1>
     8c6:	e8 2f       	mov	r30, r24
     8c8:	f9 2f       	mov	r31, r25
     8ca:	24 e0       	ldi	r18, 0x04	; 4
/* FUNCTION THAT MAKES A SIMPLE EQUATION TO SAVE THE PASSWORD IN 1 BYTE	*/

char inline Password_inFun(char * Pw_ptr){
	char i,x , j = 4 ;
	
	char Password = 0;
     8cc:	c0 e0       	ldi	r28, 0x00	; 0


/* FUNCTION THAT MAKES A SIMPLE EQUATION TO SAVE THE PASSWORD IN 1 BYTE	*/

char inline Password_inFun(char * Pw_ptr){
	char i,x , j = 4 ;
     8ce:	84 e0       	ldi	r24, 0x04	; 4
	
	char Password = 0;
	for( i = 0 ; i < 4 ; ++i , --j)
	{
		x = 1 ;
		for( ; j > 1 ; --j){
     8d0:	41 e0       	ldi	r20, 0x01	; 1
     8d2:	0d c0       	rjmp	.+26     	; 0x8ee <Check_Password_Correct+0x36>
     8d4:	94 2f       	mov	r25, r20
			x *= 2 ;
     8d6:	99 0f       	add	r25, r25
	
	char Password = 0;
	for( i = 0 ; i < 4 ; ++i , --j)
	{
		x = 1 ;
		for( ; j > 1 ; --j){
     8d8:	81 50       	subi	r24, 0x01	; 1
     8da:	81 30       	cpi	r24, 0x01	; 1
     8dc:	e1 f7       	brne	.-8      	; 0x8d6 <Check_Password_Correct+0x1e>
			x *= 2 ;
		}
		Password += (*(Pw_ptr + i)) * x ;
     8de:	31 91       	ld	r19, Z+
     8e0:	93 9f       	mul	r25, r19
     8e2:	90 2d       	mov	r25, r0
     8e4:	11 24       	eor	r1, r1
     8e6:	c9 0f       	add	r28, r25

char inline Password_inFun(char * Pw_ptr){
	char i,x , j = 4 ;
	
	char Password = 0;
	for( i = 0 ; i < 4 ; ++i , --j)
     8e8:	81 50       	subi	r24, 0x01	; 1
     8ea:	21 50       	subi	r18, 0x01	; 1
     8ec:	21 f0       	breq	.+8      	; 0x8f6 <Check_Password_Correct+0x3e>
	{
		x = 1 ;
		for( ; j > 1 ; --j){
     8ee:	82 30       	cpi	r24, 0x02	; 2
     8f0:	88 f7       	brcc	.-30     	; 0x8d4 <Check_Password_Correct+0x1c>
     8f2:	94 2f       	mov	r25, r20
     8f4:	f4 cf       	rjmp	.-24     	; 0x8de <Check_Password_Correct+0x26>

char inline Password_inFun(char * Pw_ptr){
	char i,x , j = 4 ;
	
	char Password = 0;
	for( i = 0 ; i < 4 ; ++i , --j)
     8f6:	10 e0       	ldi	r17, 0x00	; 0

	again:
	
	if(Pass == EEPROM_vRead(admin_addrs))
     8f8:	80 e1       	ldi	r24, 0x10	; 16
     8fa:	90 e0       	ldi	r25, 0x00	; 0
     8fc:	0e 94 e8 02 	call	0x5d0	; 0x5d0 <EEPROM_vRead>
     900:	8c 17       	cp	r24, r28
     902:	e1 f1       	breq	.+120    	; 0x97c <Check_Password_Correct+0xc4>
	{
		return HIGH;
	}
	else
	{
		++BlockTime ;
     904:	1f 5f       	subi	r17, 0xFF	; 255
		if(BlockTime < 3)
     906:	13 30       	cpi	r17, 0x03	; 3
     908:	a1 f1       	breq	.+104    	; 0x972 <Check_Password_Correct+0xba>
		{
		
			
			/*	WAITING FOR NEXT SCREEN	*/
			PTR_COUNT->keypad_count = 0;
     90a:	e0 91 79 01 	lds	r30, 0x0179
     90e:	f0 91 7a 01 	lds	r31, 0x017A
     912:	10 82       	st	Z, r1
			while(PTR_COUNT->keypad_count < Q_SEC);
     914:	c0 91 79 01 	lds	r28, 0x0179
     918:	d0 91 7a 01 	lds	r29, 0x017A
     91c:	68 81       	ld	r22, Y
     91e:	70 e0       	ldi	r23, 0x00	; 0
     920:	80 e0       	ldi	r24, 0x00	; 0
     922:	90 e0       	ldi	r25, 0x00	; 0
     924:	0e 94 39 10 	call	0x2072	; 0x2072 <__floatsisf>
     928:	20 e0       	ldi	r18, 0x00	; 0
     92a:	30 e0       	ldi	r19, 0x00	; 0
     92c:	48 ec       	ldi	r20, 0xC8	; 200
     92e:	51 e4       	ldi	r21, 0x41	; 65
     930:	0e 94 07 10 	call	0x200e	; 0x200e <__cmpsf2>
     934:	88 23       	and	r24, r24
     936:	94 f3       	brlt	.-28     	; 0x91c <Check_Password_Correct+0x64>
			
			Pass = TryAgain(BlockTime);
     938:	81 2f       	mov	r24, r17
     93a:	0e 94 db 03 	call	0x7b6	; 0x7b6 <TryAgain>
     93e:	c8 2f       	mov	r28, r24
			
			/*	THIS DELAY TO NOT INTERFERE WITH THE ACCESS FUNCTION	*/
			PTR_COUNT->keypad_count = 0;
     940:	e0 91 79 01 	lds	r30, 0x0179
     944:	f0 91 7a 01 	lds	r31, 0x017A
     948:	10 82       	st	Z, r1
			while(PTR_COUNT->keypad_count < Q_SEC);
     94a:	e0 90 79 01 	lds	r14, 0x0179
     94e:	f0 90 7a 01 	lds	r15, 0x017A
     952:	f7 01       	movw	r30, r14
     954:	60 81       	ld	r22, Z
     956:	70 e0       	ldi	r23, 0x00	; 0
     958:	80 e0       	ldi	r24, 0x00	; 0
     95a:	90 e0       	ldi	r25, 0x00	; 0
     95c:	0e 94 39 10 	call	0x2072	; 0x2072 <__floatsisf>
     960:	20 e0       	ldi	r18, 0x00	; 0
     962:	30 e0       	ldi	r19, 0x00	; 0
     964:	48 ec       	ldi	r20, 0xC8	; 200
     966:	51 e4       	ldi	r21, 0x41	; 65
     968:	0e 94 07 10 	call	0x200e	; 0x200e <__cmpsf2>
     96c:	88 23       	and	r24, r24
     96e:	8c f3       	brlt	.-30     	; 0x952 <Check_Password_Correct+0x9a>
     970:	c3 cf       	rjmp	.-122    	; 0x8f8 <Check_Password_Correct+0x40>
			
			goto again;
		}
		else
		{
			Pass = TryAgain(BlockTime);
     972:	81 2f       	mov	r24, r17
     974:	0e 94 db 03 	call	0x7b6	; 0x7b6 <TryAgain>
			/*	BLOCKED	*/
			return LOW ;
     978:	80 e0       	ldi	r24, 0x00	; 0
     97a:	01 c0       	rjmp	.+2      	; 0x97e <Check_Password_Correct+0xc6>

	again:
	
	if(Pass == EEPROM_vRead(admin_addrs))
	{
		return HIGH;
     97c:	81 e0       	ldi	r24, 0x01	; 1
			Pass = TryAgain(BlockTime);
			/*	BLOCKED	*/
			return LOW ;
		}
	}
}
     97e:	df 91       	pop	r29
     980:	cf 91       	pop	r28
     982:	1f 91       	pop	r17
     984:	ff 90       	pop	r15
     986:	ef 90       	pop	r14
     988:	08 95       	ret

0000098a <BlockPower>:


/* BLOCKING DISPLAY	*/
void BlockPower()
{
     98a:	cf 93       	push	r28
     98c:	df 93       	push	r29
     98e:	cd b7       	in	r28, 0x3d	; 61
     990:	de b7       	in	r29, 0x3e	; 62
     992:	28 97       	sbiw	r28, 0x08	; 8
     994:	0f b6       	in	r0, 0x3f	; 63
     996:	f8 94       	cli
     998:	de bf       	out	0x3e, r29	; 62
     99a:	0f be       	out	0x3f, r0	; 63
     99c:	cd bf       	out	0x3d, r28	; 61
	char arr0 [] = "BLOCKED" ;
     99e:	de 01       	movw	r26, r28
     9a0:	11 96       	adiw	r26, 0x01	; 1
     9a2:	ee ea       	ldi	r30, 0xAE	; 174
     9a4:	f0 e0       	ldi	r31, 0x00	; 0
     9a6:	88 e0       	ldi	r24, 0x08	; 8
     9a8:	01 90       	ld	r0, Z+
     9aa:	0d 92       	st	X+, r0
     9ac:	81 50       	subi	r24, 0x01	; 1
     9ae:	e1 f7       	brne	.-8      	; 0x9a8 <BlockPower+0x1e>
	char *ptr = arr0 ;
	LCD_vSDD(ptr);
     9b0:	ce 01       	movw	r24, r28
     9b2:	01 96       	adiw	r24, 0x01	; 1
     9b4:	0e 94 90 0b 	call	0x1720	; 0x1720 <LCD_vSDD>
}
     9b8:	28 96       	adiw	r28, 0x08	; 8
     9ba:	0f b6       	in	r0, 0x3f	; 63
     9bc:	f8 94       	cli
     9be:	de bf       	out	0x3e, r29	; 62
     9c0:	0f be       	out	0x3f, r0	; 63
     9c2:	cd bf       	out	0x3d, r28	; 61
     9c4:	df 91       	pop	r29
     9c6:	cf 91       	pop	r28
     9c8:	08 95       	ret

000009ca <Block>:

/* RETURN BLOCK PASS OR FAIL BY CHECKING THE BLOCK ADDRESS IN EEPROM	*/
void Block(char block)
{
	if(block == LOW){
     9ca:	88 23       	and	r24, r24
     9cc:	29 f4       	brne	.+10     	; 0x9d8 <Block+0xe>
		EEPROM_vWrite(LOW , BLock_Addrs);
     9ce:	60 e2       	ldi	r22, 0x20	; 32
     9d0:	70 e0       	ldi	r23, 0x00	; 0
     9d2:	0e 94 e0 02 	call	0x5c0	; 0x5c0 <EEPROM_vWrite>
     9d6:	08 95       	ret
	}
	else if(block == HIGH){
     9d8:	81 30       	cpi	r24, 0x01	; 1
     9da:	21 f4       	brne	.+8      	; 0x9e4 <Block+0x1a>
		EEPROM_vWrite(HIGH , BLock_Addrs);
     9dc:	60 e2       	ldi	r22, 0x20	; 32
     9de:	70 e0       	ldi	r23, 0x00	; 0
     9e0:	0e 94 e0 02 	call	0x5c0	; 0x5c0 <EEPROM_vWrite>
     9e4:	08 95       	ret

000009e6 <Check_NoPass>:

/* CHECK IF NO PASSWORD  IN EEPROM	*/

char Check_NoPass()
{
	if(EEPROM_vRead(admin_addrs) == CLEAR)
     9e6:	80 e1       	ldi	r24, 0x10	; 16
     9e8:	90 e0       	ldi	r25, 0x00	; 0
     9ea:	0e 94 e8 02 	call	0x5d0	; 0x5d0 <EEPROM_vRead>
	{
		return HIGH ;
     9ee:	91 e0       	ldi	r25, 0x01	; 1
     9f0:	8f 3f       	cpi	r24, 0xFF	; 255
     9f2:	09 f0       	breq	.+2      	; 0x9f6 <Check_NoPass+0x10>
     9f4:	90 e0       	ldi	r25, 0x00	; 0
	}
	else
	{
		return LOW ;
	}
}
     9f6:	89 2f       	mov	r24, r25
     9f8:	08 95       	ret

000009fa <Set_Pass>:

/* DISPLAY SET PASSWORD , TAKE IT AND SAVE IT IN EEPROM */

void Set_Pass()
{
     9fa:	cf 92       	push	r12
     9fc:	df 92       	push	r13
     9fe:	ff 92       	push	r15
     a00:	0f 93       	push	r16
     a02:	1f 93       	push	r17
     a04:	cf 93       	push	r28
     a06:	df 93       	push	r29
     a08:	cd b7       	in	r28, 0x3d	; 61
     a0a:	de b7       	in	r29, 0x3e	; 62
     a0c:	61 97       	sbiw	r28, 0x11	; 17
     a0e:	0f b6       	in	r0, 0x3f	; 63
     a10:	f8 94       	cli
     a12:	de bf       	out	0x3e, r29	; 62
     a14:	0f be       	out	0x3f, r0	; 63
     a16:	cd bf       	out	0x3d, r28	; 61
	char arr0[] = "Set Password" ;
     a18:	de 01       	movw	r26, r28
     a1a:	11 96       	adiw	r26, 0x01	; 1
     a1c:	e6 eb       	ldi	r30, 0xB6	; 182
     a1e:	f0 e0       	ldi	r31, 0x00	; 0
     a20:	8d e0       	ldi	r24, 0x0D	; 13
     a22:	01 90       	ld	r0, Z+
     a24:	0d 92       	st	X+, r0
     a26:	81 50       	subi	r24, 0x01	; 1
     a28:	e1 f7       	brne	.-8      	; 0xa22 <Set_Pass+0x28>
	char pass[4] ;
	char *Pw_ptr = pass ;
	char x;

	
	LCD_vSendCmd(0x01);
     a2a:	81 e0       	ldi	r24, 0x01	; 1
     a2c:	0e 94 70 0b 	call	0x16e0	; 0x16e0 <LCD_vSendCmd>
	LCD_vSDD(ptr0);
     a30:	ce 01       	movw	r24, r28
     a32:	01 96       	adiw	r24, 0x01	; 1
     a34:	0e 94 90 0b 	call	0x1720	; 0x1720 <LCD_vSDD>
	LCD_vMOVECur(2,1);
     a38:	82 e0       	ldi	r24, 0x02	; 2
     a3a:	61 e0       	ldi	r22, 0x01	; 1
     a3c:	0e 94 9f 0b 	call	0x173e	; 0x173e <LCD_vMOVECur>
     a40:	0f 2e       	mov	r0, r31
     a42:	fe e0       	ldi	r31, 0x0E	; 14
     a44:	cf 2e       	mov	r12, r31
     a46:	dd 24       	eor	r13, r13
     a48:	f0 2d       	mov	r31, r0
     a4a:	cc 0e       	add	r12, r28
     a4c:	dd 1e       	adc	r13, r29
	
	for(x = 0 ; x < 4 ; ++x){
     a4e:	ff 24       	eor	r15, r15
		while( KEYPAD_u8SCAN() == NoScan);
     a50:	0e 94 d0 0a 	call	0x15a0	; 0x15a0 <KEYPAD_u8SCAN>
     a54:	8f 3f       	cpi	r24, 0xFF	; 255
     a56:	e1 f3       	breq	.-8      	; 0xa50 <Set_Pass+0x56>
		
		pass[x] =  KEYPAD_u8SCAN(); ;
     a58:	0e 94 d0 0a 	call	0x15a0	; 0x15a0 <KEYPAD_u8SCAN>
     a5c:	f6 01       	movw	r30, r12
     a5e:	81 93       	st	Z+, r24
     a60:	6f 01       	movw	r12, r30
		LCD_vsenddata( pass[x] );
     a62:	0e 94 8b 0b 	call	0x1716	; 0x1716 <LCD_vsenddata>
		
		if(x != 3){
     a66:	f3 e0       	ldi	r31, 0x03	; 3
     a68:	ff 16       	cp	r15, r31
     a6a:	09 f4       	brne	.+2      	; 0xa6e <Set_Pass+0x74>
     a6c:	5c c0       	rjmp	.+184    	; 0xb26 <Set_Pass+0x12c>
			
			/*	THIS DELAY TO NOT INTERFERE WITH THE ACCESS FUNCTION	*/
			PTR_COUNT->keypad_count = 0;
     a6e:	e0 91 79 01 	lds	r30, 0x0179
     a72:	f0 91 7a 01 	lds	r31, 0x017A
     a76:	10 82       	st	Z, r1
			while(PTR_COUNT->keypad_count < Q_SEC);
     a78:	00 91 79 01 	lds	r16, 0x0179
     a7c:	10 91 7a 01 	lds	r17, 0x017A
     a80:	f8 01       	movw	r30, r16
     a82:	60 81       	ld	r22, Z
     a84:	70 e0       	ldi	r23, 0x00	; 0
     a86:	80 e0       	ldi	r24, 0x00	; 0
     a88:	90 e0       	ldi	r25, 0x00	; 0
     a8a:	0e 94 39 10 	call	0x2072	; 0x2072 <__floatsisf>
     a8e:	20 e0       	ldi	r18, 0x00	; 0
     a90:	30 e0       	ldi	r19, 0x00	; 0
     a92:	48 ec       	ldi	r20, 0xC8	; 200
     a94:	51 e4       	ldi	r21, 0x41	; 65
     a96:	0e 94 07 10 	call	0x200e	; 0x200e <__cmpsf2>
     a9a:	88 23       	and	r24, r24
     a9c:	8c f3       	brlt	.-30     	; 0xa80 <Set_Pass+0x86>
		}
		
		LCD_vMOVECur(2 , x+1);
     a9e:	f3 94       	inc	r15
     aa0:	82 e0       	ldi	r24, 0x02	; 2
     aa2:	6f 2d       	mov	r22, r15
     aa4:	0e 94 9f 0b 	call	0x173e	; 0x173e <LCD_vMOVECur>
		LCD_vsenddata('*');
     aa8:	8a e2       	ldi	r24, 0x2A	; 42
     aaa:	0e 94 8b 0b 	call	0x1716	; 0x1716 <LCD_vsenddata>
	
	LCD_vSendCmd(0x01);
	LCD_vSDD(ptr0);
	LCD_vMOVECur(2,1);
	
	for(x = 0 ; x < 4 ; ++x){
     aae:	f4 e0       	ldi	r31, 0x04	; 4
     ab0:	ff 16       	cp	r15, r31
     ab2:	71 f6       	brne	.-100    	; 0xa50 <Set_Pass+0x56>
		
		LCD_vMOVECur(2 , x+1);
		LCD_vsenddata('*');
	}
	/*	THIS DELAY TO NOT INTERFERE WITH THE ACCESS FUNCTION	*/
	PTR_COUNT->keypad_count = 0;
     ab4:	e0 91 79 01 	lds	r30, 0x0179
     ab8:	f0 91 7a 01 	lds	r31, 0x017A
     abc:	10 82       	st	Z, r1
	while(PTR_COUNT->keypad_count < HALF_SEC);
     abe:	e0 91 79 01 	lds	r30, 0x0179
     ac2:	f0 91 7a 01 	lds	r31, 0x017A
     ac6:	80 81       	ld	r24, Z
     ac8:	82 33       	cpi	r24, 0x32	; 50
     aca:	e8 f3       	brcs	.-6      	; 0xac6 <Set_Pass+0xcc>
     acc:	fe 01       	movw	r30, r28
     ace:	3e 96       	adiw	r30, 0x0e	; 14
	}
}

/* DISPLAY SET PASSWORD , TAKE IT AND SAVE IT IN EEPROM */

void Set_Pass()
     ad0:	9e 01       	movw	r18, r28
     ad2:	2e 5e       	subi	r18, 0xEE	; 238
     ad4:	3f 4f       	sbci	r19, 0xFF	; 255
     ad6:	80 e0       	ldi	r24, 0x00	; 0
     ad8:	94 e0       	ldi	r25, 0x04	; 4
	{
		x = 1 ;
		for( ; j > 1 ; --j){
     ada:	61 e0       	ldi	r22, 0x01	; 1
     adc:	0e c0       	rjmp	.+28     	; 0xafa <Set_Pass+0x100>
     ade:	46 2f       	mov	r20, r22
			x *= 2 ;
     ae0:	44 0f       	add	r20, r20
	
	char Password = 0;
	for( i = 0 ; i < 4 ; ++i , --j)
	{
		x = 1 ;
		for( ; j > 1 ; --j){
     ae2:	91 50       	subi	r25, 0x01	; 1
     ae4:	91 30       	cpi	r25, 0x01	; 1
     ae6:	e1 f7       	brne	.-8      	; 0xae0 <Set_Pass+0xe6>
			x *= 2 ;
		}
		Password += (*(Pw_ptr + i)) * x ;
     ae8:	51 91       	ld	r21, Z+
     aea:	45 9f       	mul	r20, r21
     aec:	40 2d       	mov	r20, r0
     aee:	11 24       	eor	r1, r1
     af0:	84 0f       	add	r24, r20

char inline Password_inFun(char * Pw_ptr){
	char i,x , j = 4 ;
	
	char Password = 0;
	for( i = 0 ; i < 4 ; ++i , --j)
     af2:	91 50       	subi	r25, 0x01	; 1
     af4:	e2 17       	cp	r30, r18
     af6:	f3 07       	cpc	r31, r19
     af8:	21 f0       	breq	.+8      	; 0xb02 <Set_Pass+0x108>
	{
		x = 1 ;
		for( ; j > 1 ; --j){
     afa:	92 30       	cpi	r25, 0x02	; 2
     afc:	80 f7       	brcc	.-32     	; 0xade <Set_Pass+0xe4>
     afe:	46 2f       	mov	r20, r22
     b00:	f3 cf       	rjmp	.-26     	; 0xae8 <Set_Pass+0xee>
	/*	THIS DELAY TO NOT INTERFERE WITH THE ACCESS FUNCTION	*/
	PTR_COUNT->keypad_count = 0;
	while(PTR_COUNT->keypad_count < HALF_SEC);
	
	//_delay_ms(250);	/* DELAY	*/
	EEPROM_vWrite(Password_inFun(Pw_ptr) , admin_addrs);
     b02:	60 e1       	ldi	r22, 0x10	; 16
     b04:	70 e0       	ldi	r23, 0x00	; 0
     b06:	0e 94 e0 02 	call	0x5c0	; 0x5c0 <EEPROM_vWrite>
}
     b0a:	61 96       	adiw	r28, 0x11	; 17
     b0c:	0f b6       	in	r0, 0x3f	; 63
     b0e:	f8 94       	cli
     b10:	de bf       	out	0x3e, r29	; 62
     b12:	0f be       	out	0x3f, r0	; 63
     b14:	cd bf       	out	0x3d, r28	; 61
     b16:	df 91       	pop	r29
     b18:	cf 91       	pop	r28
     b1a:	1f 91       	pop	r17
     b1c:	0f 91       	pop	r16
     b1e:	ff 90       	pop	r15
     b20:	df 90       	pop	r13
     b22:	cf 90       	pop	r12
     b24:	08 95       	ret
			/*	THIS DELAY TO NOT INTERFERE WITH THE ACCESS FUNCTION	*/
			PTR_COUNT->keypad_count = 0;
			while(PTR_COUNT->keypad_count < Q_SEC);
		}
		
		LCD_vMOVECur(2 , x+1);
     b26:	6f 2d       	mov	r22, r15
     b28:	6f 5f       	subi	r22, 0xFF	; 255
     b2a:	82 e0       	ldi	r24, 0x02	; 2
     b2c:	0e 94 9f 0b 	call	0x173e	; 0x173e <LCD_vMOVECur>
		LCD_vsenddata('*');
     b30:	8a e2       	ldi	r24, 0x2A	; 42
     b32:	0e 94 8b 0b 	call	0x1716	; 0x1716 <LCD_vsenddata>
     b36:	be cf       	rjmp	.-132    	; 0xab4 <Set_Pass+0xba>

00000b38 <Access_Display1>:


/*	DISPLAY FIRST ACCESS TO ROOM 1 AND ROOM 2	*/

char Access_Display1()
{
     b38:	ff 92       	push	r15
     b3a:	0f 93       	push	r16
     b3c:	1f 93       	push	r17
     b3e:	cf 93       	push	r28
     b40:	df 93       	push	r29
     b42:	cd b7       	in	r28, 0x3d	; 61
     b44:	de b7       	in	r29, 0x3e	; 62
     b46:	6a 97       	sbiw	r28, 0x1a	; 26
     b48:	0f b6       	in	r0, 0x3f	; 63
     b4a:	f8 94       	cli
     b4c:	de bf       	out	0x3e, r29	; 62
     b4e:	0f be       	out	0x3f, r0	; 63
     b50:	cd bf       	out	0x3d, r28	; 61
	char arr0[] = "(0)Room1" ;
     b52:	de 01       	movw	r26, r28
     b54:	11 96       	adiw	r26, 0x01	; 1
     b56:	e3 ec       	ldi	r30, 0xC3	; 195
     b58:	f0 e0       	ldi	r31, 0x00	; 0
     b5a:	89 e0       	ldi	r24, 0x09	; 9
     b5c:	01 90       	ld	r0, Z+
     b5e:	0d 92       	st	X+, r0
     b60:	81 50       	subi	r24, 0x01	; 1
     b62:	e1 f7       	brne	.-8      	; 0xb5c <Access_Display1+0x24>
	char arr1[] = "(1)Room2";
     b64:	de 01       	movw	r26, r28
     b66:	1a 96       	adiw	r26, 0x0a	; 10
     b68:	ec ec       	ldi	r30, 0xCC	; 204
     b6a:	f0 e0       	ldi	r31, 0x00	; 0
     b6c:	89 e0       	ldi	r24, 0x09	; 9
     b6e:	01 90       	ld	r0, Z+
     b70:	0d 92       	st	X+, r0
     b72:	81 50       	subi	r24, 0x01	; 1
     b74:	e1 f7       	brne	.-8      	; 0xb6e <Access_Display1+0x36>
	char arr2[] = "(-)Next";
     b76:	de 01       	movw	r26, r28
     b78:	53 96       	adiw	r26, 0x13	; 19
     b7a:	e5 ed       	ldi	r30, 0xD5	; 213
     b7c:	f0 e0       	ldi	r31, 0x00	; 0
     b7e:	88 e0       	ldi	r24, 0x08	; 8
     b80:	01 90       	ld	r0, Z+
     b82:	0d 92       	st	X+, r0
     b84:	81 50       	subi	r24, 0x01	; 1
     b86:	e1 f7       	brne	.-8      	; 0xb80 <Access_Display1+0x48>
	char *ptr2 = arr2 ;
	
	char key ;
	
	/* Just the shape of Displaying	*/
	LCD_vSendCmd(0x01);
     b88:	81 e0       	ldi	r24, 0x01	; 1
     b8a:	0e 94 70 0b 	call	0x16e0	; 0x16e0 <LCD_vSendCmd>
	LCD_vSDD(ptr0);
     b8e:	ce 01       	movw	r24, r28
     b90:	01 96       	adiw	r24, 0x01	; 1
     b92:	0e 94 90 0b 	call	0x1720	; 0x1720 <LCD_vSDD>
	LCD_vMOVECur(1,10);
     b96:	81 e0       	ldi	r24, 0x01	; 1
     b98:	6a e0       	ldi	r22, 0x0A	; 10
     b9a:	0e 94 9f 0b 	call	0x173e	; 0x173e <LCD_vMOVECur>
	
	LCD_vSDD(ptr1);
     b9e:	ce 01       	movw	r24, r28
     ba0:	0a 96       	adiw	r24, 0x0a	; 10
     ba2:	0e 94 90 0b 	call	0x1720	; 0x1720 <LCD_vSDD>
	LCD_vMOVECur(2,1);
     ba6:	82 e0       	ldi	r24, 0x02	; 2
     ba8:	61 e0       	ldi	r22, 0x01	; 1
     baa:	0e 94 9f 0b 	call	0x173e	; 0x173e <LCD_vMOVECur>
	
	LCD_vSDD(ptr2);
     bae:	ce 01       	movw	r24, r28
     bb0:	43 96       	adiw	r24, 0x13	; 19
     bb2:	0e 94 90 0b 	call	0x1720	; 0x1720 <LCD_vSDD>
	LCD_vMOVECur(2,8);
     bb6:	82 e0       	ldi	r24, 0x02	; 2
     bb8:	68 e0       	ldi	r22, 0x08	; 8
     bba:	0e 94 9f 0b 	call	0x173e	; 0x173e <LCD_vMOVECur>
	
	/* take from keypad 0 or 1 or 2 */
	/* Wait until a key pressed */
	while( KEYPAD_u8SCAN() == NoScan);	
     bbe:	0e 94 d0 0a 	call	0x15a0	; 0x15a0 <KEYPAD_u8SCAN>
     bc2:	8f 3f       	cpi	r24, 0xFF	; 255
     bc4:	e1 f3       	breq	.-8      	; 0xbbe <Access_Display1+0x86>
	key =  KEYPAD_u8SCAN();
     bc6:	0e 94 d0 0a 	call	0x15a0	; 0x15a0 <KEYPAD_u8SCAN>
     bca:	f8 2e       	mov	r15, r24
	
	/*	THIS DELAY TO NOT INTERFERE WITH THE ACCESS FUNCTION	*/
	PTR_COUNT->keypad_count = 0;
     bcc:	e0 91 79 01 	lds	r30, 0x0179
     bd0:	f0 91 7a 01 	lds	r31, 0x017A
     bd4:	10 82       	st	Z, r1
	while(PTR_COUNT->keypad_count < Q_SEC);
     bd6:	00 91 79 01 	lds	r16, 0x0179
     bda:	10 91 7a 01 	lds	r17, 0x017A
     bde:	f8 01       	movw	r30, r16
     be0:	60 81       	ld	r22, Z
     be2:	70 e0       	ldi	r23, 0x00	; 0
     be4:	80 e0       	ldi	r24, 0x00	; 0
     be6:	90 e0       	ldi	r25, 0x00	; 0
     be8:	0e 94 39 10 	call	0x2072	; 0x2072 <__floatsisf>
     bec:	20 e0       	ldi	r18, 0x00	; 0
     bee:	30 e0       	ldi	r19, 0x00	; 0
     bf0:	48 ec       	ldi	r20, 0xC8	; 200
     bf2:	51 e4       	ldi	r21, 0x41	; 65
     bf4:	0e 94 07 10 	call	0x200e	; 0x200e <__cmpsf2>
     bf8:	88 23       	and	r24, r24
     bfa:	8c f3       	brlt	.-30     	; 0xbde <Access_Display1+0xa6>
	

	return key ;
}
     bfc:	8f 2d       	mov	r24, r15
     bfe:	6a 96       	adiw	r28, 0x1a	; 26
     c00:	0f b6       	in	r0, 0x3f	; 63
     c02:	f8 94       	cli
     c04:	de bf       	out	0x3e, r29	; 62
     c06:	0f be       	out	0x3f, r0	; 63
     c08:	cd bf       	out	0x3d, r28	; 61
     c0a:	df 91       	pop	r29
     c0c:	cf 91       	pop	r28
     c0e:	1f 91       	pop	r17
     c10:	0f 91       	pop	r16
     c12:	ff 90       	pop	r15
     c14:	08 95       	ret

00000c16 <Access_Display2>:


/* DISPLAY SECOND ACCESS TO ROOM 3 , TV AND AIRCONDTION	*/

char Access_Display2()
{
     c16:	ff 92       	push	r15
     c18:	0f 93       	push	r16
     c1a:	1f 93       	push	r17
     c1c:	cf 93       	push	r28
     c1e:	df 93       	push	r29
     c20:	cd b7       	in	r28, 0x3d	; 61
     c22:	de b7       	in	r29, 0x3e	; 62
     c24:	6e 97       	sbiw	r28, 0x1e	; 30
     c26:	0f b6       	in	r0, 0x3f	; 63
     c28:	f8 94       	cli
     c2a:	de bf       	out	0x3e, r29	; 62
     c2c:	0f be       	out	0x3f, r0	; 63
     c2e:	cd bf       	out	0x3d, r28	; 61
	char arr0[] = "(2)Room3" ;
     c30:	de 01       	movw	r26, r28
     c32:	11 96       	adiw	r26, 0x01	; 1
     c34:	ed ed       	ldi	r30, 0xDD	; 221
     c36:	f0 e0       	ldi	r31, 0x00	; 0
     c38:	89 e0       	ldi	r24, 0x09	; 9
     c3a:	01 90       	ld	r0, Z+
     c3c:	0d 92       	st	X+, r0
     c3e:	81 50       	subi	r24, 0x01	; 1
     c40:	e1 f7       	brne	.-8      	; 0xc3a <Access_Display2+0x24>
	char arr1[] = "(3)TV";
     c42:	de 01       	movw	r26, r28
     c44:	1a 96       	adiw	r26, 0x0a	; 10
     c46:	e6 ee       	ldi	r30, 0xE6	; 230
     c48:	f0 e0       	ldi	r31, 0x00	; 0
     c4a:	86 e0       	ldi	r24, 0x06	; 6
     c4c:	01 90       	ld	r0, Z+
     c4e:	0d 92       	st	X+, r0
     c50:	81 50       	subi	r24, 0x01	; 1
     c52:	e1 f7       	brne	.-8      	; 0xc4c <Access_Display2+0x36>
	char arr2[] = "(4)AirCondtion";
     c54:	de 01       	movw	r26, r28
     c56:	50 96       	adiw	r26, 0x10	; 16
     c58:	ec ee       	ldi	r30, 0xEC	; 236
     c5a:	f0 e0       	ldi	r31, 0x00	; 0
     c5c:	8f e0       	ldi	r24, 0x0F	; 15
     c5e:	01 90       	ld	r0, Z+
     c60:	0d 92       	st	X+, r0
     c62:	81 50       	subi	r24, 0x01	; 1
     c64:	e1 f7       	brne	.-8      	; 0xc5e <Access_Display2+0x48>
	
	char key ;

	/* Just the shape of Displaying	*/
	
	LCD_vSendCmd(0x01);
     c66:	81 e0       	ldi	r24, 0x01	; 1
     c68:	0e 94 70 0b 	call	0x16e0	; 0x16e0 <LCD_vSendCmd>
	LCD_vSDD(ptr0);
     c6c:	ce 01       	movw	r24, r28
     c6e:	01 96       	adiw	r24, 0x01	; 1
     c70:	0e 94 90 0b 	call	0x1720	; 0x1720 <LCD_vSDD>
	LCD_vMOVECur(1,10);
     c74:	81 e0       	ldi	r24, 0x01	; 1
     c76:	6a e0       	ldi	r22, 0x0A	; 10
     c78:	0e 94 9f 0b 	call	0x173e	; 0x173e <LCD_vMOVECur>
	
	LCD_vSDD(ptr1);
     c7c:	ce 01       	movw	r24, r28
     c7e:	0a 96       	adiw	r24, 0x0a	; 10
     c80:	0e 94 90 0b 	call	0x1720	; 0x1720 <LCD_vSDD>
	LCD_vMOVECur(2,1);
     c84:	82 e0       	ldi	r24, 0x02	; 2
     c86:	61 e0       	ldi	r22, 0x01	; 1
     c88:	0e 94 9f 0b 	call	0x173e	; 0x173e <LCD_vMOVECur>
	
	LCD_vSDD(ptr2);
     c8c:	ce 01       	movw	r24, r28
     c8e:	40 96       	adiw	r24, 0x10	; 16
     c90:	0e 94 90 0b 	call	0x1720	; 0x1720 <LCD_vSDD>
	LCD_vMOVECur(2,14);
     c94:	82 e0       	ldi	r24, 0x02	; 2
     c96:	6e e0       	ldi	r22, 0x0E	; 14
     c98:	0e 94 9f 0b 	call	0x173e	; 0x173e <LCD_vMOVECur>
	
	/* take from keypad 0 or 1 or 2 */
	/* Wait untill a key pressed */
	while(KEYPAD_u8SCAN() == NoScan);	
     c9c:	0e 94 d0 0a 	call	0x15a0	; 0x15a0 <KEYPAD_u8SCAN>
     ca0:	8f 3f       	cpi	r24, 0xFF	; 255
     ca2:	e1 f3       	breq	.-8      	; 0xc9c <Access_Display2+0x86>
	key = KEYPAD_u8SCAN();
     ca4:	0e 94 d0 0a 	call	0x15a0	; 0x15a0 <KEYPAD_u8SCAN>
     ca8:	f8 2e       	mov	r15, r24
	
	/*	THIS DELAY TO NOT INTERFERE WITH THE ACCESS FUNCTION	*/
	PTR_COUNT->keypad_count = 0;
     caa:	e0 91 79 01 	lds	r30, 0x0179
     cae:	f0 91 7a 01 	lds	r31, 0x017A
     cb2:	10 82       	st	Z, r1
	while(PTR_COUNT->keypad_count < Q_SEC);
     cb4:	00 91 79 01 	lds	r16, 0x0179
     cb8:	10 91 7a 01 	lds	r17, 0x017A
     cbc:	f8 01       	movw	r30, r16
     cbe:	60 81       	ld	r22, Z
     cc0:	70 e0       	ldi	r23, 0x00	; 0
     cc2:	80 e0       	ldi	r24, 0x00	; 0
     cc4:	90 e0       	ldi	r25, 0x00	; 0
     cc6:	0e 94 39 10 	call	0x2072	; 0x2072 <__floatsisf>
     cca:	20 e0       	ldi	r18, 0x00	; 0
     ccc:	30 e0       	ldi	r19, 0x00	; 0
     cce:	48 ec       	ldi	r20, 0xC8	; 200
     cd0:	51 e4       	ldi	r21, 0x41	; 65
     cd2:	0e 94 07 10 	call	0x200e	; 0x200e <__cmpsf2>
     cd6:	88 23       	and	r24, r24
     cd8:	8c f3       	brlt	.-30     	; 0xcbc <Access_Display2+0xa6>
	
	return key ;
}
     cda:	8f 2d       	mov	r24, r15
     cdc:	6e 96       	adiw	r28, 0x1e	; 30
     cde:	0f b6       	in	r0, 0x3f	; 63
     ce0:	f8 94       	cli
     ce2:	de bf       	out	0x3e, r29	; 62
     ce4:	0f be       	out	0x3f, r0	; 63
     ce6:	cd bf       	out	0x3d, r28	; 61
     ce8:	df 91       	pop	r29
     cea:	cf 91       	pop	r28
     cec:	1f 91       	pop	r17
     cee:	0f 91       	pop	r16
     cf0:	ff 90       	pop	r15
     cf2:	08 95       	ret

00000cf4 <Rooms_Access_Display>:


/* DISPLAYING WHICH ROOM USER ACCESSING AT THE MOMENT */

char Rooms_Access_Display(char RoomNumber)
{
     cf4:	ff 92       	push	r15
     cf6:	0f 93       	push	r16
     cf8:	1f 93       	push	r17
     cfa:	cf 93       	push	r28
     cfc:	df 93       	push	r29
     cfe:	cd b7       	in	r28, 0x3d	; 61
     d00:	de b7       	in	r29, 0x3e	; 62
     d02:	a7 97       	sbiw	r28, 0x27	; 39
     d04:	0f b6       	in	r0, 0x3f	; 63
     d06:	f8 94       	cli
     d08:	de bf       	out	0x3e, r29	; 62
     d0a:	0f be       	out	0x3f, r0	; 63
     d0c:	cd bf       	out	0x3d, r28	; 61
	char arr0[] = "ROOM 1" ;
     d0e:	de 01       	movw	r26, r28
     d10:	11 96       	adiw	r26, 0x01	; 1
     d12:	eb ef       	ldi	r30, 0xFB	; 251
     d14:	f0 e0       	ldi	r31, 0x00	; 0
     d16:	97 e0       	ldi	r25, 0x07	; 7
     d18:	01 90       	ld	r0, Z+
     d1a:	0d 92       	st	X+, r0
     d1c:	91 50       	subi	r25, 0x01	; 1
     d1e:	e1 f7       	brne	.-8      	; 0xd18 <Rooms_Access_Display+0x24>
	char arr1[] = "(=)Menu";
     d20:	fe 01       	movw	r30, r28
     d22:	38 96       	adiw	r30, 0x08	; 8
     d24:	a2 e0       	ldi	r26, 0x02	; 2
     d26:	b1 e0       	ldi	r27, 0x01	; 1
     d28:	98 e0       	ldi	r25, 0x08	; 8
     d2a:	0d 90       	ld	r0, X+
     d2c:	01 92       	st	Z+, r0
     d2e:	91 50       	subi	r25, 0x01	; 1
     d30:	e1 f7       	brne	.-8      	; 0xd2a <Rooms_Access_Display+0x36>
	char arr2[] = "(*)Logout";
     d32:	fe 01       	movw	r30, r28
     d34:	70 96       	adiw	r30, 0x10	; 16
     d36:	aa e0       	ldi	r26, 0x0A	; 10
     d38:	b1 e0       	ldi	r27, 0x01	; 1
     d3a:	9a e0       	ldi	r25, 0x0A	; 10
     d3c:	0d 90       	ld	r0, X+
     d3e:	01 92       	st	Z+, r0
     d40:	91 50       	subi	r25, 0x01	; 1
     d42:	e1 f7       	brne	.-8      	; 0xd3c <Rooms_Access_Display+0x48>
	char arr3[] = "ROOM 2" ;
     d44:	fe 01       	movw	r30, r28
     d46:	7a 96       	adiw	r30, 0x1a	; 26
     d48:	a4 e1       	ldi	r26, 0x14	; 20
     d4a:	b1 e0       	ldi	r27, 0x01	; 1
     d4c:	97 e0       	ldi	r25, 0x07	; 7
     d4e:	0d 90       	ld	r0, X+
     d50:	01 92       	st	Z+, r0
     d52:	91 50       	subi	r25, 0x01	; 1
     d54:	e1 f7       	brne	.-8      	; 0xd4e <Rooms_Access_Display+0x5a>
	char arr4[] = "ROOM 3" ;
     d56:	fe 01       	movw	r30, r28
     d58:	b1 96       	adiw	r30, 0x21	; 33
     d5a:	ab e1       	ldi	r26, 0x1B	; 27
     d5c:	b1 e0       	ldi	r27, 0x01	; 1
     d5e:	97 e0       	ldi	r25, 0x07	; 7
     d60:	0d 90       	ld	r0, X+
     d62:	01 92       	st	Z+, r0
     d64:	91 50       	subi	r25, 0x01	; 1
     d66:	e1 f7       	brne	.-8      	; 0xd60 <Rooms_Access_Display+0x6c>
	char *ptr2 = arr2 ;
	
	char key;
	
	/* Just the shape of Displaying	*/
	switch(RoomNumber)
     d68:	81 33       	cpi	r24, 0x31	; 49
     d6a:	29 f0       	breq	.+10     	; 0xd76 <Rooms_Access_Display+0x82>
     d6c:	82 33       	cpi	r24, 0x32	; 50
     d6e:	39 f0       	breq	.+14     	; 0xd7e <Rooms_Access_Display+0x8a>
     d70:	80 33       	cpi	r24, 0x30	; 48
     d72:	61 f4       	brne	.+24     	; 0xd8c <Rooms_Access_Display+0x98>
     d74:	08 c0       	rjmp	.+16     	; 0xd86 <Rooms_Access_Display+0x92>
		case ROOM1 :
		ptr0 = arr0 ;
		break ;
		
		case ROOM2 :
		ptr0 = arr3 ;
     d76:	8e 01       	movw	r16, r28
     d78:	06 5e       	subi	r16, 0xE6	; 230
     d7a:	1f 4f       	sbci	r17, 0xFF	; 255
		break ;
     d7c:	07 c0       	rjmp	.+14     	; 0xd8c <Rooms_Access_Display+0x98>
		
		case ROOM3 :
		ptr0 = arr4 ;
     d7e:	8e 01       	movw	r16, r28
     d80:	0f 5d       	subi	r16, 0xDF	; 223
     d82:	1f 4f       	sbci	r17, 0xFF	; 255
		break ;
     d84:	03 c0       	rjmp	.+6      	; 0xd8c <Rooms_Access_Display+0x98>
	
	/* Just the shape of Displaying	*/
	switch(RoomNumber)
	{
		case ROOM1 :
		ptr0 = arr0 ;
     d86:	8e 01       	movw	r16, r28
     d88:	0f 5f       	subi	r16, 0xFF	; 255
     d8a:	1f 4f       	sbci	r17, 0xFF	; 255
		case ROOM3 :
		ptr0 = arr4 ;
		break ;
	}
	
	LCD_vSendCmd(0x01);
     d8c:	81 e0       	ldi	r24, 0x01	; 1
     d8e:	0e 94 70 0b 	call	0x16e0	; 0x16e0 <LCD_vSendCmd>
	LCD_vMOVECur(1,6);
     d92:	81 e0       	ldi	r24, 0x01	; 1
     d94:	66 e0       	ldi	r22, 0x06	; 6
     d96:	0e 94 9f 0b 	call	0x173e	; 0x173e <LCD_vMOVECur>
	LCD_vSDD(ptr0);
     d9a:	c8 01       	movw	r24, r16
     d9c:	0e 94 90 0b 	call	0x1720	; 0x1720 <LCD_vSDD>
	LCD_vMOVECur(2,1);
     da0:	82 e0       	ldi	r24, 0x02	; 2
     da2:	61 e0       	ldi	r22, 0x01	; 1
     da4:	0e 94 9f 0b 	call	0x173e	; 0x173e <LCD_vMOVECur>
	
	LCD_vSDD(ptr1);
     da8:	ce 01       	movw	r24, r28
     daa:	08 96       	adiw	r24, 0x08	; 8
     dac:	0e 94 90 0b 	call	0x1720	; 0x1720 <LCD_vSDD>
	LCD_vMOVECur(2,8);
     db0:	82 e0       	ldi	r24, 0x02	; 2
     db2:	68 e0       	ldi	r22, 0x08	; 8
     db4:	0e 94 9f 0b 	call	0x173e	; 0x173e <LCD_vMOVECur>
	
	LCD_vSDD(ptr2);
     db8:	ce 01       	movw	r24, r28
     dba:	40 96       	adiw	r24, 0x10	; 16
     dbc:	0e 94 90 0b 	call	0x1720	; 0x1720 <LCD_vSDD>
	LCD_vMOVECur(2,16);
     dc0:	82 e0       	ldi	r24, 0x02	; 2
     dc2:	60 e1       	ldi	r22, 0x10	; 16
     dc4:	0e 94 9f 0b 	call	0x173e	; 0x173e <LCD_vMOVECur>
	
	/* take from keypad 0 or 1 */
	/* Wait until a key pressed */
	while(KEYPAD_u8SCAN() == NoScan);	
     dc8:	0e 94 d0 0a 	call	0x15a0	; 0x15a0 <KEYPAD_u8SCAN>
     dcc:	8f 3f       	cpi	r24, 0xFF	; 255
     dce:	e1 f3       	breq	.-8      	; 0xdc8 <Rooms_Access_Display+0xd4>
	key =KEYPAD_u8SCAN();
     dd0:	0e 94 d0 0a 	call	0x15a0	; 0x15a0 <KEYPAD_u8SCAN>
     dd4:	f8 2e       	mov	r15, r24
	
	/*	THIS DELAY TO NOT INTERFERE WITH THE ACCESS FUNCTION	*/
	PTR_COUNT->keypad_count = 0;
     dd6:	e0 91 79 01 	lds	r30, 0x0179
     dda:	f0 91 7a 01 	lds	r31, 0x017A
     dde:	10 82       	st	Z, r1
	while(PTR_COUNT->keypad_count < Q_SEC);
     de0:	00 91 79 01 	lds	r16, 0x0179
     de4:	10 91 7a 01 	lds	r17, 0x017A
     de8:	f8 01       	movw	r30, r16
     dea:	60 81       	ld	r22, Z
     dec:	70 e0       	ldi	r23, 0x00	; 0
     dee:	80 e0       	ldi	r24, 0x00	; 0
     df0:	90 e0       	ldi	r25, 0x00	; 0
     df2:	0e 94 39 10 	call	0x2072	; 0x2072 <__floatsisf>
     df6:	20 e0       	ldi	r18, 0x00	; 0
     df8:	30 e0       	ldi	r19, 0x00	; 0
     dfa:	48 ec       	ldi	r20, 0xC8	; 200
     dfc:	51 e4       	ldi	r21, 0x41	; 65
     dfe:	0e 94 07 10 	call	0x200e	; 0x200e <__cmpsf2>
     e02:	88 23       	and	r24, r24
     e04:	8c f3       	brlt	.-30     	; 0xde8 <Rooms_Access_Display+0xf4>
	
	//_delay_ms(250);
	if(key == MENU)
     e06:	fd e3       	ldi	r31, 0x3D	; 61
     e08:	ff 16       	cp	r15, r31
     e0a:	21 f0       	breq	.+8      	; 0xe14 <Rooms_Access_Display+0x120>
	{
		return HIGH ;
	}
	else if(key == LOUT)
     e0c:	8a e2       	ldi	r24, 0x2A	; 42
     e0e:	f8 16       	cp	r15, r24
     e10:	19 f0       	breq	.+6      	; 0xe18 <Rooms_Access_Display+0x124>
     e12:	03 c0       	rjmp	.+6      	; 0xe1a <Rooms_Access_Display+0x126>
	while(PTR_COUNT->keypad_count < Q_SEC);
	
	//_delay_ms(250);
	if(key == MENU)
	{
		return HIGH ;
     e14:	81 e0       	ldi	r24, 0x01	; 1
     e16:	01 c0       	rjmp	.+2      	; 0xe1a <Rooms_Access_Display+0x126>
	}
	else if(key == LOUT)
	{
		return LOW ;
     e18:	80 e0       	ldi	r24, 0x00	; 0
	}
}
     e1a:	a7 96       	adiw	r28, 0x27	; 39
     e1c:	0f b6       	in	r0, 0x3f	; 63
     e1e:	f8 94       	cli
     e20:	de bf       	out	0x3e, r29	; 62
     e22:	0f be       	out	0x3f, r0	; 63
     e24:	cd bf       	out	0x3d, r28	; 61
     e26:	df 91       	pop	r29
     e28:	cf 91       	pop	r28
     e2a:	1f 91       	pop	r17
     e2c:	0f 91       	pop	r16
     e2e:	ff 90       	pop	r15
     e30:	08 95       	ret

00000e32 <TVM>:


/* DISPLAY OF TV ON OR OFF CHOICES	*/

void TVM()
{
     e32:	cf 93       	push	r28
     e34:	df 93       	push	r29
     e36:	cd b7       	in	r28, 0x3d	; 61
     e38:	de b7       	in	r29, 0x3e	; 62
     e3a:	68 97       	sbiw	r28, 0x18	; 24
     e3c:	0f b6       	in	r0, 0x3f	; 63
     e3e:	f8 94       	cli
     e40:	de bf       	out	0x3e, r29	; 62
     e42:	0f be       	out	0x3f, r0	; 63
     e44:	cd bf       	out	0x3d, r28	; 61
	char arr0[] = "1:TV ON";
     e46:	de 01       	movw	r26, r28
     e48:	11 96       	adiw	r26, 0x01	; 1
     e4a:	e2 e2       	ldi	r30, 0x22	; 34
     e4c:	f1 e0       	ldi	r31, 0x01	; 1
     e4e:	88 e0       	ldi	r24, 0x08	; 8
     e50:	01 90       	ld	r0, Z+
     e52:	0d 92       	st	X+, r0
     e54:	81 50       	subi	r24, 0x01	; 1
     e56:	e1 f7       	brne	.-8      	; 0xe50 <TVM+0x1e>
	char arr1[] = "2:TV OFF";
     e58:	de 01       	movw	r26, r28
     e5a:	19 96       	adiw	r26, 0x09	; 9
     e5c:	ea e2       	ldi	r30, 0x2A	; 42
     e5e:	f1 e0       	ldi	r31, 0x01	; 1
     e60:	89 e0       	ldi	r24, 0x09	; 9
     e62:	01 90       	ld	r0, Z+
     e64:	0d 92       	st	X+, r0
     e66:	81 50       	subi	r24, 0x01	; 1
     e68:	e1 f7       	brne	.-8      	; 0xe62 <TVM+0x30>
	char arr2[] = "0:Menu";
     e6a:	de 01       	movw	r26, r28
     e6c:	52 96       	adiw	r26, 0x12	; 18
     e6e:	e3 e3       	ldi	r30, 0x33	; 51
     e70:	f1 e0       	ldi	r31, 0x01	; 1
     e72:	87 e0       	ldi	r24, 0x07	; 7
     e74:	01 90       	ld	r0, Z+
     e76:	0d 92       	st	X+, r0
     e78:	81 50       	subi	r24, 0x01	; 1
     e7a:	e1 f7       	brne	.-8      	; 0xe74 <TVM+0x42>
	char *ptr1 = arr1 ;
	char *ptr2 = arr2 ;
	
	
	
	LCD_vSendCmd(0x01);
     e7c:	81 e0       	ldi	r24, 0x01	; 1
     e7e:	0e 94 70 0b 	call	0x16e0	; 0x16e0 <LCD_vSendCmd>
	LCD_vSDD(ptr2);
     e82:	ce 01       	movw	r24, r28
     e84:	42 96       	adiw	r24, 0x12	; 18
     e86:	0e 94 90 0b 	call	0x1720	; 0x1720 <LCD_vSDD>
	LCD_vMOVECur(1,2);
     e8a:	81 e0       	ldi	r24, 0x01	; 1
     e8c:	62 e0       	ldi	r22, 0x02	; 2
     e8e:	0e 94 9f 0b 	call	0x173e	; 0x173e <LCD_vMOVECur>
	
	LCD_vSDD(ptr0);
     e92:	ce 01       	movw	r24, r28
     e94:	01 96       	adiw	r24, 0x01	; 1
     e96:	0e 94 90 0b 	call	0x1720	; 0x1720 <LCD_vSDD>
	LCD_vMOVECur(2 ,9);
     e9a:	82 e0       	ldi	r24, 0x02	; 2
     e9c:	69 e0       	ldi	r22, 0x09	; 9
     e9e:	0e 94 9f 0b 	call	0x173e	; 0x173e <LCD_vMOVECur>

	LCD_vSDD(ptr1);
     ea2:	ce 01       	movw	r24, r28
     ea4:	09 96       	adiw	r24, 0x09	; 9
     ea6:	0e 94 90 0b 	call	0x1720	; 0x1720 <LCD_vSDD>
	LCD_vMOVECur(1,8);
     eaa:	81 e0       	ldi	r24, 0x01	; 1
     eac:	68 e0       	ldi	r22, 0x08	; 8
     eae:	0e 94 9f 0b 	call	0x173e	; 0x173e <LCD_vMOVECur>
	
}
     eb2:	68 96       	adiw	r28, 0x18	; 24
     eb4:	0f b6       	in	r0, 0x3f	; 63
     eb6:	f8 94       	cli
     eb8:	de bf       	out	0x3e, r29	; 62
     eba:	0f be       	out	0x3f, r0	; 63
     ebc:	cd bf       	out	0x3d, r28	; 61
     ebe:	df 91       	pop	r29
     ec0:	cf 91       	pop	r28
     ec2:	08 95       	ret

00000ec4 <TV_ON_OFF>:


/* ASKING IF USER WANTS TV ON OR OFF	*/

char TV_ON_OFF(){
     ec4:	1f 93       	push	r17
     ec6:	cf 93       	push	r28
     ec8:	df 93       	push	r29
	TVM();
     eca:	0e 94 19 07 	call	0xe32	; 0xe32 <TVM>
	char key ;
	
	
	/* take from keypad 0 or 1 */
	/* Wait until a key pressed */
	while(KEYPAD_u8SCAN() == NoScan);	
     ece:	0e 94 d0 0a 	call	0x15a0	; 0x15a0 <KEYPAD_u8SCAN>
     ed2:	8f 3f       	cpi	r24, 0xFF	; 255
     ed4:	e1 f3       	breq	.-8      	; 0xece <TV_ON_OFF+0xa>
	key = KEYPAD_u8SCAN();
     ed6:	0e 94 d0 0a 	call	0x15a0	; 0x15a0 <KEYPAD_u8SCAN>
     eda:	18 2f       	mov	r17, r24
	
	/*	THIS DELAY TO NOT INTERFERE WITH THE ACCESS FUNCTION	*/
	PTR_COUNT->keypad_count = 0;
     edc:	e0 91 79 01 	lds	r30, 0x0179
     ee0:	f0 91 7a 01 	lds	r31, 0x017A
     ee4:	10 82       	st	Z, r1
	while(PTR_COUNT->keypad_count < Q_SEC);
     ee6:	c0 91 79 01 	lds	r28, 0x0179
     eea:	d0 91 7a 01 	lds	r29, 0x017A
     eee:	68 81       	ld	r22, Y
     ef0:	70 e0       	ldi	r23, 0x00	; 0
     ef2:	80 e0       	ldi	r24, 0x00	; 0
     ef4:	90 e0       	ldi	r25, 0x00	; 0
     ef6:	0e 94 39 10 	call	0x2072	; 0x2072 <__floatsisf>
     efa:	20 e0       	ldi	r18, 0x00	; 0
     efc:	30 e0       	ldi	r19, 0x00	; 0
     efe:	48 ec       	ldi	r20, 0xC8	; 200
     f00:	51 e4       	ldi	r21, 0x41	; 65
     f02:	0e 94 07 10 	call	0x200e	; 0x200e <__cmpsf2>
     f06:	88 23       	and	r24, r24
     f08:	94 f3       	brlt	.-28     	; 0xeee <TV_ON_OFF+0x2a>
	

	if(key == K_ON){
     f0a:	11 33       	cpi	r17, 0x31	; 49
     f0c:	29 f0       	breq	.+10     	; 0xf18 <TV_ON_OFF+0x54>
		return ON ;
	}
	else if(key == K_OFF){
     f0e:	10 33       	cpi	r17, 0x30	; 48
     f10:	29 f0       	breq	.+10     	; 0xf1c <TV_ON_OFF+0x58>
		return OFF ;
	}
	else if(key == MENU){
     f12:	1d 33       	cpi	r17, 0x3D	; 61
     f14:	29 f0       	breq	.+10     	; 0xf20 <TV_ON_OFF+0x5c>
     f16:	05 c0       	rjmp	.+10     	; 0xf22 <TV_ON_OFF+0x5e>
	PTR_COUNT->keypad_count = 0;
	while(PTR_COUNT->keypad_count < Q_SEC);
	

	if(key == K_ON){
		return ON ;
     f18:	81 e3       	ldi	r24, 0x31	; 49
     f1a:	03 c0       	rjmp	.+6      	; 0xf22 <TV_ON_OFF+0x5e>
	}
	else if(key == K_OFF){
		return OFF ;
     f1c:	80 e3       	ldi	r24, 0x30	; 48
     f1e:	01 c0       	rjmp	.+2      	; 0xf22 <TV_ON_OFF+0x5e>
	}
	else if(key == MENU){
		return MENU ;
     f20:	8d e3       	ldi	r24, 0x3D	; 61
	}
}
     f22:	df 91       	pop	r29
     f24:	cf 91       	pop	r28
     f26:	1f 91       	pop	r17
     f28:	08 95       	ret

00000f2a <TV_Access>:

/* DISPLAY OF TV ACCESSING SCREEN	*/

char TV_Access()
{
     f2a:	ff 92       	push	r15
     f2c:	0f 93       	push	r16
     f2e:	1f 93       	push	r17
     f30:	cf 93       	push	r28
     f32:	df 93       	push	r29
     f34:	cd b7       	in	r28, 0x3d	; 61
     f36:	de b7       	in	r29, 0x3e	; 62
     f38:	68 97       	sbiw	r28, 0x18	; 24
     f3a:	0f b6       	in	r0, 0x3f	; 63
     f3c:	f8 94       	cli
     f3e:	de bf       	out	0x3e, r29	; 62
     f40:	0f be       	out	0x3f, r0	; 63
     f42:	cd bf       	out	0x3d, r28	; 61
	char arr0[] = "TV ON";
     f44:	de 01       	movw	r26, r28
     f46:	11 96       	adiw	r26, 0x01	; 1
     f48:	ea e3       	ldi	r30, 0x3A	; 58
     f4a:	f1 e0       	ldi	r31, 0x01	; 1
     f4c:	86 e0       	ldi	r24, 0x06	; 6
     f4e:	01 90       	ld	r0, Z+
     f50:	0d 92       	st	X+, r0
     f52:	81 50       	subi	r24, 0x01	; 1
     f54:	e1 f7       	brne	.-8      	; 0xf4e <TV_Access+0x24>
	char arr1[] = "(=)Menu";
     f56:	de 01       	movw	r26, r28
     f58:	17 96       	adiw	r26, 0x07	; 7
     f5a:	e2 e0       	ldi	r30, 0x02	; 2
     f5c:	f1 e0       	ldi	r31, 0x01	; 1
     f5e:	88 e0       	ldi	r24, 0x08	; 8
     f60:	01 90       	ld	r0, Z+
     f62:	0d 92       	st	X+, r0
     f64:	81 50       	subi	r24, 0x01	; 1
     f66:	e1 f7       	brne	.-8      	; 0xf60 <TV_Access+0x36>
	char arr2[] = "(*)Logout" ;
     f68:	de 01       	movw	r26, r28
     f6a:	1f 96       	adiw	r26, 0x0f	; 15
     f6c:	ea e0       	ldi	r30, 0x0A	; 10
     f6e:	f1 e0       	ldi	r31, 0x01	; 1
     f70:	8a e0       	ldi	r24, 0x0A	; 10
     f72:	01 90       	ld	r0, Z+
     f74:	0d 92       	st	X+, r0
     f76:	81 50       	subi	r24, 0x01	; 1
     f78:	e1 f7       	brne	.-8      	; 0xf72 <TV_Access+0x48>
	char *ptr0 = arr0 ;
	char *ptr1 = arr1 ;
	char *ptr2 = arr2 ;
	char key ;

	LCD_vSendCmd(0x01);
     f7a:	81 e0       	ldi	r24, 0x01	; 1
     f7c:	0e 94 70 0b 	call	0x16e0	; 0x16e0 <LCD_vSendCmd>
	LCD_vMOVECur(6 , 1);
     f80:	86 e0       	ldi	r24, 0x06	; 6
     f82:	61 e0       	ldi	r22, 0x01	; 1
     f84:	0e 94 9f 0b 	call	0x173e	; 0x173e <LCD_vMOVECur>
	LCD_vSDD(ptr0);
     f88:	ce 01       	movw	r24, r28
     f8a:	01 96       	adiw	r24, 0x01	; 1
     f8c:	0e 94 90 0b 	call	0x1720	; 0x1720 <LCD_vSDD>
	LCD_vMOVECur(2,1);
     f90:	82 e0       	ldi	r24, 0x02	; 2
     f92:	61 e0       	ldi	r22, 0x01	; 1
     f94:	0e 94 9f 0b 	call	0x173e	; 0x173e <LCD_vMOVECur>
	
	LCD_vSDD(ptr1);
     f98:	ce 01       	movw	r24, r28
     f9a:	07 96       	adiw	r24, 0x07	; 7
     f9c:	0e 94 90 0b 	call	0x1720	; 0x1720 <LCD_vSDD>
	LCD_vMOVECur(2,8);
     fa0:	82 e0       	ldi	r24, 0x02	; 2
     fa2:	68 e0       	ldi	r22, 0x08	; 8
     fa4:	0e 94 9f 0b 	call	0x173e	; 0x173e <LCD_vMOVECur>
	
	LCD_vSDD(ptr2);
     fa8:	ce 01       	movw	r24, r28
     faa:	0f 96       	adiw	r24, 0x0f	; 15
     fac:	0e 94 90 0b 	call	0x1720	; 0x1720 <LCD_vSDD>
	LCD_vMOVECur(2,16);
     fb0:	82 e0       	ldi	r24, 0x02	; 2
     fb2:	60 e1       	ldi	r22, 0x10	; 16
     fb4:	0e 94 9f 0b 	call	0x173e	; 0x173e <LCD_vMOVECur>
	
	/* take from keypad 0 or 1 */
	/* Wait untill a key pressed */
	while(KEYPAD_u8SCAN() == NoScan);	
     fb8:	0e 94 d0 0a 	call	0x15a0	; 0x15a0 <KEYPAD_u8SCAN>
     fbc:	8f 3f       	cpi	r24, 0xFF	; 255
     fbe:	e1 f3       	breq	.-8      	; 0xfb8 <TV_Access+0x8e>
	key = KEYPAD_u8SCAN();
     fc0:	0e 94 d0 0a 	call	0x15a0	; 0x15a0 <KEYPAD_u8SCAN>
     fc4:	f8 2e       	mov	r15, r24
	
	/*	THIS DELAY TO NOT INTERFERE WITH THE ACCESS FUNCTION	*/
	PTR_COUNT->keypad_count = 0;
     fc6:	e0 91 79 01 	lds	r30, 0x0179
     fca:	f0 91 7a 01 	lds	r31, 0x017A
     fce:	10 82       	st	Z, r1
	while(PTR_COUNT->keypad_count < Q_SEC);
     fd0:	00 91 79 01 	lds	r16, 0x0179
     fd4:	10 91 7a 01 	lds	r17, 0x017A
     fd8:	f8 01       	movw	r30, r16
     fda:	60 81       	ld	r22, Z
     fdc:	70 e0       	ldi	r23, 0x00	; 0
     fde:	80 e0       	ldi	r24, 0x00	; 0
     fe0:	90 e0       	ldi	r25, 0x00	; 0
     fe2:	0e 94 39 10 	call	0x2072	; 0x2072 <__floatsisf>
     fe6:	20 e0       	ldi	r18, 0x00	; 0
     fe8:	30 e0       	ldi	r19, 0x00	; 0
     fea:	48 ec       	ldi	r20, 0xC8	; 200
     fec:	51 e4       	ldi	r21, 0x41	; 65
     fee:	0e 94 07 10 	call	0x200e	; 0x200e <__cmpsf2>
     ff2:	88 23       	and	r24, r24
     ff4:	8c f3       	brlt	.-30     	; 0xfd8 <TV_Access+0xae>
	
	
	if(key == MENU)
     ff6:	fd e3       	ldi	r31, 0x3D	; 61
     ff8:	ff 16       	cp	r15, r31
     ffa:	21 f0       	breq	.+8      	; 0x1004 <TV_Access+0xda>
	{
		return HIGH ;
	}
	else if(key == LOUT)
     ffc:	8a e2       	ldi	r24, 0x2A	; 42
     ffe:	f8 16       	cp	r15, r24
    1000:	19 f0       	breq	.+6      	; 0x1008 <TV_Access+0xde>
    1002:	03 c0       	rjmp	.+6      	; 0x100a <TV_Access+0xe0>
	while(PTR_COUNT->keypad_count < Q_SEC);
	
	
	if(key == MENU)
	{
		return HIGH ;
    1004:	81 e0       	ldi	r24, 0x01	; 1
    1006:	01 c0       	rjmp	.+2      	; 0x100a <TV_Access+0xe0>
	}
	else if(key == LOUT)
	{
		return LOW ;
    1008:	80 e0       	ldi	r24, 0x00	; 0
	}
}
    100a:	68 96       	adiw	r28, 0x18	; 24
    100c:	0f b6       	in	r0, 0x3f	; 63
    100e:	f8 94       	cli
    1010:	de bf       	out	0x3e, r29	; 62
    1012:	0f be       	out	0x3f, r0	; 63
    1014:	cd bf       	out	0x3d, r28	; 61
    1016:	df 91       	pop	r29
    1018:	cf 91       	pop	r28
    101a:	1f 91       	pop	r17
    101c:	0f 91       	pop	r16
    101e:	ff 90       	pop	r15
    1020:	08 95       	ret

00001022 <AC_disp>:

/* DISPLAY OF AIRCONDTION CHOICES FOR USER TO USE	*/

void AC_disp()
{
    1022:	cf 93       	push	r28
    1024:	df 93       	push	r29
    1026:	cd b7       	in	r28, 0x3d	; 61
    1028:	de b7       	in	r29, 0x3e	; 62
    102a:	6b 97       	sbiw	r28, 0x1b	; 27
    102c:	0f b6       	in	r0, 0x3f	; 63
    102e:	f8 94       	cli
    1030:	de bf       	out	0x3e, r29	; 62
    1032:	0f be       	out	0x3f, r0	; 63
    1034:	cd bf       	out	0x3d, r28	; 61
	char arr0[] = "(1)AC ON";
    1036:	de 01       	movw	r26, r28
    1038:	11 96       	adiw	r26, 0x01	; 1
    103a:	e0 e4       	ldi	r30, 0x40	; 64
    103c:	f1 e0       	ldi	r31, 0x01	; 1
    103e:	89 e0       	ldi	r24, 0x09	; 9
    1040:	01 90       	ld	r0, Z+
    1042:	0d 92       	st	X+, r0
    1044:	81 50       	subi	r24, 0x01	; 1
    1046:	e1 f7       	brne	.-8      	; 0x1040 <AC_disp+0x1e>
	char arr1[] = "(2)AC OFF";
    1048:	de 01       	movw	r26, r28
    104a:	1a 96       	adiw	r26, 0x0a	; 10
    104c:	e9 e4       	ldi	r30, 0x49	; 73
    104e:	f1 e0       	ldi	r31, 0x01	; 1
    1050:	8a e0       	ldi	r24, 0x0A	; 10
    1052:	01 90       	ld	r0, Z+
    1054:	0d 92       	st	X+, r0
    1056:	81 50       	subi	r24, 0x01	; 1
    1058:	e1 f7       	brne	.-8      	; 0x1052 <AC_disp+0x30>
	char arr2[] = "(=)Menu";
    105a:	de 01       	movw	r26, r28
    105c:	54 96       	adiw	r26, 0x14	; 20
    105e:	e2 e0       	ldi	r30, 0x02	; 2
    1060:	f1 e0       	ldi	r31, 0x01	; 1
    1062:	88 e0       	ldi	r24, 0x08	; 8
    1064:	01 90       	ld	r0, Z+
    1066:	0d 92       	st	X+, r0
    1068:	81 50       	subi	r24, 0x01	; 1
    106a:	e1 f7       	brne	.-8      	; 0x1064 <AC_disp+0x42>
	char *ptr0 = arr0 ;
	char *ptr1 = arr1 ;
	char *ptr2 = arr2 ;
	
	
	LCD_vSendCmd(0x01);
    106c:	81 e0       	ldi	r24, 0x01	; 1
    106e:	0e 94 70 0b 	call	0x16e0	; 0x16e0 <LCD_vSendCmd>
	LCD_vSDD(ptr2);
    1072:	ce 01       	movw	r24, r28
    1074:	44 96       	adiw	r24, 0x14	; 20
    1076:	0e 94 90 0b 	call	0x1720	; 0x1720 <LCD_vSDD>
	LCD_vMOVECur(2 , 1);
    107a:	82 e0       	ldi	r24, 0x02	; 2
    107c:	61 e0       	ldi	r22, 0x01	; 1
    107e:	0e 94 9f 0b 	call	0x173e	; 0x173e <LCD_vMOVECur>
	
	LCD_vSDD(ptr0);
    1082:	ce 01       	movw	r24, r28
    1084:	01 96       	adiw	r24, 0x01	; 1
    1086:	0e 94 90 0b 	call	0x1720	; 0x1720 <LCD_vSDD>
	LCD_vMOVECur(2 , 9);
    108a:	82 e0       	ldi	r24, 0x02	; 2
    108c:	69 e0       	ldi	r22, 0x09	; 9
    108e:	0e 94 9f 0b 	call	0x173e	; 0x173e <LCD_vMOVECur>

	LCD_vSDD(ptr1);
    1092:	ce 01       	movw	r24, r28
    1094:	0a 96       	adiw	r24, 0x0a	; 10
    1096:	0e 94 90 0b 	call	0x1720	; 0x1720 <LCD_vSDD>
	LCD_vMOVECur(1 , 8);
    109a:	81 e0       	ldi	r24, 0x01	; 1
    109c:	68 e0       	ldi	r22, 0x08	; 8
    109e:	0e 94 9f 0b 	call	0x173e	; 0x173e <LCD_vMOVECur>
	
}
    10a2:	6b 96       	adiw	r28, 0x1b	; 27
    10a4:	0f b6       	in	r0, 0x3f	; 63
    10a6:	f8 94       	cli
    10a8:	de bf       	out	0x3e, r29	; 62
    10aa:	0f be       	out	0x3f, r0	; 63
    10ac:	cd bf       	out	0x3d, r28	; 61
    10ae:	df 91       	pop	r29
    10b0:	cf 91       	pop	r28
    10b2:	08 95       	ret

000010b4 <AC_On>:

/* CHOOSING WHICH FEATURE IN AIRCONDTION YOU WANNA USE	*/

char AC_On()
{
    10b4:	1f 93       	push	r17
    10b6:	cf 93       	push	r28
    10b8:	df 93       	push	r29
	AC_disp();
    10ba:	0e 94 11 08 	call	0x1022	; 0x1022 <AC_disp>
	char key ;

	
	/* take from keypad 0 or 1 */
	/* Wait until a key pressed */
	while(KEYPAD_u8SCAN() == NoScan);	
    10be:	0e 94 d0 0a 	call	0x15a0	; 0x15a0 <KEYPAD_u8SCAN>
    10c2:	8f 3f       	cpi	r24, 0xFF	; 255
    10c4:	e1 f3       	breq	.-8      	; 0x10be <AC_On+0xa>
	key = KEYPAD_u8SCAN();
    10c6:	0e 94 d0 0a 	call	0x15a0	; 0x15a0 <KEYPAD_u8SCAN>
    10ca:	18 2f       	mov	r17, r24
	
	/*	THIS DELAY TO NOT INTERFERE WITH THE ACCESS FUNCTION	*/
	PTR_COUNT->keypad_count = 0;
    10cc:	e0 91 79 01 	lds	r30, 0x0179
    10d0:	f0 91 7a 01 	lds	r31, 0x017A
    10d4:	10 82       	st	Z, r1
	while(PTR_COUNT->keypad_count < Q_SEC);
    10d6:	c0 91 79 01 	lds	r28, 0x0179
    10da:	d0 91 7a 01 	lds	r29, 0x017A
    10de:	68 81       	ld	r22, Y
    10e0:	70 e0       	ldi	r23, 0x00	; 0
    10e2:	80 e0       	ldi	r24, 0x00	; 0
    10e4:	90 e0       	ldi	r25, 0x00	; 0
    10e6:	0e 94 39 10 	call	0x2072	; 0x2072 <__floatsisf>
    10ea:	20 e0       	ldi	r18, 0x00	; 0
    10ec:	30 e0       	ldi	r19, 0x00	; 0
    10ee:	48 ec       	ldi	r20, 0xC8	; 200
    10f0:	51 e4       	ldi	r21, 0x41	; 65
    10f2:	0e 94 07 10 	call	0x200e	; 0x200e <__cmpsf2>
    10f6:	88 23       	and	r24, r24
    10f8:	94 f3       	brlt	.-28     	; 0x10de <AC_On+0x2a>
	
	//_delay_ms(250);
	if(key == K_ON)
    10fa:	11 33       	cpi	r17, 0x31	; 49
    10fc:	29 f0       	breq	.+10     	; 0x1108 <AC_On+0x54>
	{
		return ON ;
	}
	else if(key == K_OFF)
    10fe:	10 33       	cpi	r17, 0x30	; 48
    1100:	29 f0       	breq	.+10     	; 0x110c <AC_On+0x58>
	{
		return OFF ;
	}
	else if(key == MENU)
    1102:	1d 33       	cpi	r17, 0x3D	; 61
    1104:	29 f0       	breq	.+10     	; 0x1110 <AC_On+0x5c>
    1106:	05 c0       	rjmp	.+10     	; 0x1112 <AC_On+0x5e>
	while(PTR_COUNT->keypad_count < Q_SEC);
	
	//_delay_ms(250);
	if(key == K_ON)
	{
		return ON ;
    1108:	81 e3       	ldi	r24, 0x31	; 49
    110a:	03 c0       	rjmp	.+6      	; 0x1112 <AC_On+0x5e>
	}
	else if(key == K_OFF)
	{
		return OFF ;
    110c:	80 e3       	ldi	r24, 0x30	; 48
    110e:	01 c0       	rjmp	.+2      	; 0x1112 <AC_On+0x5e>
	}
	else if(key == MENU)
	{
		return MENU ;
    1110:	8d e3       	ldi	r24, 0x3D	; 61
	}
}
    1112:	df 91       	pop	r29
    1114:	cf 91       	pop	r28
    1116:	1f 91       	pop	r17
    1118:	08 95       	ret

0000111a <AC_Access>:

char AC_Access()
{
    111a:	ff 92       	push	r15
    111c:	0f 93       	push	r16
    111e:	1f 93       	push	r17
    1120:	cf 93       	push	r28
    1122:	df 93       	push	r29
    1124:	cd b7       	in	r28, 0x3d	; 61
    1126:	de b7       	in	r29, 0x3e	; 62
    1128:	68 97       	sbiw	r28, 0x18	; 24
    112a:	0f b6       	in	r0, 0x3f	; 63
    112c:	f8 94       	cli
    112e:	de bf       	out	0x3e, r29	; 62
    1130:	0f be       	out	0x3f, r0	; 63
    1132:	cd bf       	out	0x3d, r28	; 61
	char arr0[] = "AC ON";
    1134:	de 01       	movw	r26, r28
    1136:	11 96       	adiw	r26, 0x01	; 1
    1138:	e3 e5       	ldi	r30, 0x53	; 83
    113a:	f1 e0       	ldi	r31, 0x01	; 1
    113c:	86 e0       	ldi	r24, 0x06	; 6
    113e:	01 90       	ld	r0, Z+
    1140:	0d 92       	st	X+, r0
    1142:	81 50       	subi	r24, 0x01	; 1
    1144:	e1 f7       	brne	.-8      	; 0x113e <AC_Access+0x24>
	char arr1[] = "(=)Menu";
    1146:	de 01       	movw	r26, r28
    1148:	17 96       	adiw	r26, 0x07	; 7
    114a:	e2 e0       	ldi	r30, 0x02	; 2
    114c:	f1 e0       	ldi	r31, 0x01	; 1
    114e:	88 e0       	ldi	r24, 0x08	; 8
    1150:	01 90       	ld	r0, Z+
    1152:	0d 92       	st	X+, r0
    1154:	81 50       	subi	r24, 0x01	; 1
    1156:	e1 f7       	brne	.-8      	; 0x1150 <AC_Access+0x36>
	char arr2[] = "(*)Logout" ;
    1158:	de 01       	movw	r26, r28
    115a:	1f 96       	adiw	r26, 0x0f	; 15
    115c:	ea e0       	ldi	r30, 0x0A	; 10
    115e:	f1 e0       	ldi	r31, 0x01	; 1
    1160:	8a e0       	ldi	r24, 0x0A	; 10
    1162:	01 90       	ld	r0, Z+
    1164:	0d 92       	st	X+, r0
    1166:	81 50       	subi	r24, 0x01	; 1
    1168:	e1 f7       	brne	.-8      	; 0x1162 <AC_Access+0x48>
	char *ptr0 = arr0 ;
	char *ptr1 = arr1 ;
	char *ptr2 = arr2 ;
	char key;
	
	LCD_vSendCmd(0x01);
    116a:	81 e0       	ldi	r24, 0x01	; 1
    116c:	0e 94 70 0b 	call	0x16e0	; 0x16e0 <LCD_vSendCmd>
	LCD_vMOVECur(1,6);
    1170:	81 e0       	ldi	r24, 0x01	; 1
    1172:	66 e0       	ldi	r22, 0x06	; 6
    1174:	0e 94 9f 0b 	call	0x173e	; 0x173e <LCD_vMOVECur>
	LCD_vSDD(ptr0);
    1178:	ce 01       	movw	r24, r28
    117a:	01 96       	adiw	r24, 0x01	; 1
    117c:	0e 94 90 0b 	call	0x1720	; 0x1720 <LCD_vSDD>
	LCD_vMOVECur(2,1);
    1180:	82 e0       	ldi	r24, 0x02	; 2
    1182:	61 e0       	ldi	r22, 0x01	; 1
    1184:	0e 94 9f 0b 	call	0x173e	; 0x173e <LCD_vMOVECur>
	
	LCD_vSDD(ptr1);
    1188:	ce 01       	movw	r24, r28
    118a:	07 96       	adiw	r24, 0x07	; 7
    118c:	0e 94 90 0b 	call	0x1720	; 0x1720 <LCD_vSDD>
	LCD_vMOVECur(2,8);
    1190:	82 e0       	ldi	r24, 0x02	; 2
    1192:	68 e0       	ldi	r22, 0x08	; 8
    1194:	0e 94 9f 0b 	call	0x173e	; 0x173e <LCD_vMOVECur>
	
	LCD_vSDD(ptr2);
    1198:	ce 01       	movw	r24, r28
    119a:	0f 96       	adiw	r24, 0x0f	; 15
    119c:	0e 94 90 0b 	call	0x1720	; 0x1720 <LCD_vSDD>
	LCD_vMOVECur(2,16);
    11a0:	82 e0       	ldi	r24, 0x02	; 2
    11a2:	60 e1       	ldi	r22, 0x10	; 16
    11a4:	0e 94 9f 0b 	call	0x173e	; 0x173e <LCD_vMOVECur>
	
	/* take from keypad 0 or 1 */
	while(KEYPAD_u8SCAN() == NoScan);	/* Wait untill a key pressed */
    11a8:	0e 94 d0 0a 	call	0x15a0	; 0x15a0 <KEYPAD_u8SCAN>
    11ac:	8f 3f       	cpi	r24, 0xFF	; 255
    11ae:	e1 f3       	breq	.-8      	; 0x11a8 <AC_Access+0x8e>
	key= KEYPAD_u8SCAN();
    11b0:	0e 94 d0 0a 	call	0x15a0	; 0x15a0 <KEYPAD_u8SCAN>
    11b4:	f8 2e       	mov	r15, r24
	
	/*	THIS DELAY TO NOT INTERFERE WITH THE ACCESS FUNCTION	*/
	PTR_COUNT->keypad_count = 0;
    11b6:	e0 91 79 01 	lds	r30, 0x0179
    11ba:	f0 91 7a 01 	lds	r31, 0x017A
    11be:	10 82       	st	Z, r1
	while(PTR_COUNT->keypad_count < Q_SEC);
    11c0:	00 91 79 01 	lds	r16, 0x0179
    11c4:	10 91 7a 01 	lds	r17, 0x017A
    11c8:	f8 01       	movw	r30, r16
    11ca:	60 81       	ld	r22, Z
    11cc:	70 e0       	ldi	r23, 0x00	; 0
    11ce:	80 e0       	ldi	r24, 0x00	; 0
    11d0:	90 e0       	ldi	r25, 0x00	; 0
    11d2:	0e 94 39 10 	call	0x2072	; 0x2072 <__floatsisf>
    11d6:	20 e0       	ldi	r18, 0x00	; 0
    11d8:	30 e0       	ldi	r19, 0x00	; 0
    11da:	48 ec       	ldi	r20, 0xC8	; 200
    11dc:	51 e4       	ldi	r21, 0x41	; 65
    11de:	0e 94 07 10 	call	0x200e	; 0x200e <__cmpsf2>
    11e2:	88 23       	and	r24, r24
    11e4:	8c f3       	brlt	.-30     	; 0x11c8 <AC_Access+0xae>
	

	if(key == MENU){
    11e6:	fd e3       	ldi	r31, 0x3D	; 61
    11e8:	ff 16       	cp	r15, r31
    11ea:	21 f0       	breq	.+8      	; 0x11f4 <AC_Access+0xda>
		return HIGH ;
	}
	else if(key == LOUT){
    11ec:	8a e2       	ldi	r24, 0x2A	; 42
    11ee:	f8 16       	cp	r15, r24
    11f0:	19 f0       	breq	.+6      	; 0x11f8 <AC_Access+0xde>
    11f2:	03 c0       	rjmp	.+6      	; 0x11fa <AC_Access+0xe0>
	PTR_COUNT->keypad_count = 0;
	while(PTR_COUNT->keypad_count < Q_SEC);
	

	if(key == MENU){
		return HIGH ;
    11f4:	81 e0       	ldi	r24, 0x01	; 1
    11f6:	01 c0       	rjmp	.+2      	; 0x11fa <AC_Access+0xe0>
	}
	else if(key == LOUT){
		return LOW ;
    11f8:	80 e0       	ldi	r24, 0x00	; 0
	}
}
    11fa:	68 96       	adiw	r28, 0x18	; 24
    11fc:	0f b6       	in	r0, 0x3f	; 63
    11fe:	f8 94       	cli
    1200:	de bf       	out	0x3e, r29	; 62
    1202:	0f be       	out	0x3f, r0	; 63
    1204:	cd bf       	out	0x3d, r28	; 61
    1206:	df 91       	pop	r29
    1208:	cf 91       	pop	r28
    120a:	1f 91       	pop	r17
    120c:	0f 91       	pop	r16
    120e:	ff 90       	pop	r15
    1210:	08 95       	ret

00001212 <AC_TEMP_SET>:


/* SETTING TEMPERATURE OF AIRCONDTION	*/
void AC_TEMP_SET()
{
    1212:	cf 93       	push	r28
    1214:	df 93       	push	r29
    1216:	cd b7       	in	r28, 0x3d	; 61
    1218:	de b7       	in	r29, 0x3e	; 62
    121a:	2d 97       	sbiw	r28, 0x0d	; 13
    121c:	0f b6       	in	r0, 0x3f	; 63
    121e:	f8 94       	cli
    1220:	de bf       	out	0x3e, r29	; 62
    1222:	0f be       	out	0x3f, r0	; 63
    1224:	cd bf       	out	0x3d, r28	; 61
	char arr0[] = "Enter Degree";
    1226:	de 01       	movw	r26, r28
    1228:	11 96       	adiw	r26, 0x01	; 1
    122a:	e9 e5       	ldi	r30, 0x59	; 89
    122c:	f1 e0       	ldi	r31, 0x01	; 1
    122e:	8d e0       	ldi	r24, 0x0D	; 13
    1230:	01 90       	ld	r0, Z+
    1232:	0d 92       	st	X+, r0
    1234:	81 50       	subi	r24, 0x01	; 1
    1236:	e1 f7       	brne	.-8      	; 0x1230 <AC_TEMP_SET+0x1e>
	char *ptr0 = arr0 ;
	
	
	LCD_vSendCmd(0x01);
    1238:	81 e0       	ldi	r24, 0x01	; 1
    123a:	0e 94 70 0b 	call	0x16e0	; 0x16e0 <LCD_vSendCmd>
	LCD_vSDD(ptr0);
    123e:	ce 01       	movw	r24, r28
    1240:	01 96       	adiw	r24, 0x01	; 1
    1242:	0e 94 90 0b 	call	0x1720	; 0x1720 <LCD_vSDD>
	LCD_vMOVECur(2,1);
    1246:	82 e0       	ldi	r24, 0x02	; 2
    1248:	61 e0       	ldi	r22, 0x01	; 1
    124a:	0e 94 9f 0b 	call	0x173e	; 0x173e <LCD_vMOVECur>
	
}
    124e:	2d 96       	adiw	r28, 0x0d	; 13
    1250:	0f b6       	in	r0, 0x3f	; 63
    1252:	f8 94       	cli
    1254:	de bf       	out	0x3e, r29	; 62
    1256:	0f be       	out	0x3f, r0	; 63
    1258:	cd bf       	out	0x3d, r28	; 61
    125a:	df 91       	pop	r29
    125c:	cf 91       	pop	r28
    125e:	08 95       	ret

00001260 <AC_TEMP_Degree>:

/* GETTING DESIRED TEMPERATURE FROM USER	*/

char * AC_TEMP_Degree(void)
{
    1260:	cf 92       	push	r12
    1262:	df 92       	push	r13
    1264:	ef 92       	push	r14
    1266:	ff 92       	push	r15
    1268:	0f 93       	push	r16
    126a:	1f 93       	push	r17
    126c:	cf 93       	push	r28
    126e:	df 93       	push	r29
    1270:	00 d0       	rcall	.+0      	; 0x1272 <AC_TEMP_Degree+0x12>
    1272:	cd b7       	in	r28, 0x3d	; 61
    1274:	de b7       	in	r29, 0x3e	; 62
	AC_TEMP_SET();
    1276:	0e 94 09 09 	call	0x1212	; 0x1212 <AC_TEMP_SET>
    127a:	7e 01       	movw	r14, r28
    127c:	08 94       	sec
    127e:	e1 1c       	adc	r14, r1
    1280:	f1 1c       	adc	r15, r1
	
}

/* GETTING DESIRED TEMPERATURE FROM USER	*/

char * AC_TEMP_Degree(void)
    1282:	0f 2e       	mov	r0, r31
    1284:	f3 e0       	ldi	r31, 0x03	; 3
    1286:	cf 2e       	mov	r12, r31
    1288:	dd 24       	eor	r13, r13
    128a:	f0 2d       	mov	r31, r0
    128c:	cc 0e       	add	r12, r28
    128e:	dd 1e       	adc	r13, r29
	char *degree_ptr = temp ;
	char x;
	
	
	for(x = 0 ; x < 2 ; ++x){
		while(KEYPAD_u8SCAN() == NoScan);
    1290:	0e 94 d0 0a 	call	0x15a0	; 0x15a0 <KEYPAD_u8SCAN>
    1294:	8f 3f       	cpi	r24, 0xFF	; 255
    1296:	e1 f3       	breq	.-8      	; 0x1290 <AC_TEMP_Degree+0x30>
		
		temp[x] = KEYPAD_u8SCAN() ;
    1298:	0e 94 d0 0a 	call	0x15a0	; 0x15a0 <KEYPAD_u8SCAN>
    129c:	f7 01       	movw	r30, r14
    129e:	81 93       	st	Z+, r24
    12a0:	7f 01       	movw	r14, r30
		LCD_vsenddata( temp[x] );
    12a2:	0e 94 8b 0b 	call	0x1716	; 0x1716 <LCD_vsenddata>
		
		PTR_COUNT->keypad_count = 0;
    12a6:	e0 91 79 01 	lds	r30, 0x0179
    12aa:	f0 91 7a 01 	lds	r31, 0x017A
    12ae:	10 82       	st	Z, r1
		while(PTR_COUNT->keypad_count < Q_SEC);
    12b0:	00 91 79 01 	lds	r16, 0x0179
    12b4:	10 91 7a 01 	lds	r17, 0x017A
    12b8:	f8 01       	movw	r30, r16
    12ba:	60 81       	ld	r22, Z
    12bc:	70 e0       	ldi	r23, 0x00	; 0
    12be:	80 e0       	ldi	r24, 0x00	; 0
    12c0:	90 e0       	ldi	r25, 0x00	; 0
    12c2:	0e 94 39 10 	call	0x2072	; 0x2072 <__floatsisf>
    12c6:	20 e0       	ldi	r18, 0x00	; 0
    12c8:	30 e0       	ldi	r19, 0x00	; 0
    12ca:	48 ec       	ldi	r20, 0xC8	; 200
    12cc:	51 e4       	ldi	r21, 0x41	; 65
    12ce:	0e 94 07 10 	call	0x200e	; 0x200e <__cmpsf2>
    12d2:	88 23       	and	r24, r24
    12d4:	8c f3       	brlt	.-30     	; 0x12b8 <AC_TEMP_Degree+0x58>
	char temp[2] ;
	char *degree_ptr = temp ;
	char x;
	
	
	for(x = 0 ; x < 2 ; ++x){
    12d6:	ec 14       	cp	r14, r12
    12d8:	fd 04       	cpc	r15, r13
    12da:	d1 f6       	brne	.-76     	; 0x1290 <AC_TEMP_Degree+0x30>
		LCD_vsenddata( temp[x] );
		
		PTR_COUNT->keypad_count = 0;
		while(PTR_COUNT->keypad_count < Q_SEC);
	}
	while(KEYPAD_u8SCAN() != ENTER);
    12dc:	0e 94 d0 0a 	call	0x15a0	; 0x15a0 <KEYPAD_u8SCAN>
    12e0:	8b 32       	cpi	r24, 0x2B	; 43
    12e2:	e1 f7       	brne	.-8      	; 0x12dc <AC_TEMP_Degree+0x7c>
	
	PTR_COUNT->keypad_count = 0;
    12e4:	e0 91 79 01 	lds	r30, 0x0179
    12e8:	f0 91 7a 01 	lds	r31, 0x017A
    12ec:	10 82       	st	Z, r1
	while(PTR_COUNT->keypad_count < Q_SEC);
    12ee:	00 91 79 01 	lds	r16, 0x0179
    12f2:	10 91 7a 01 	lds	r17, 0x017A
    12f6:	f8 01       	movw	r30, r16
    12f8:	60 81       	ld	r22, Z
    12fa:	70 e0       	ldi	r23, 0x00	; 0
    12fc:	80 e0       	ldi	r24, 0x00	; 0
    12fe:	90 e0       	ldi	r25, 0x00	; 0
    1300:	0e 94 39 10 	call	0x2072	; 0x2072 <__floatsisf>
    1304:	20 e0       	ldi	r18, 0x00	; 0
    1306:	30 e0       	ldi	r19, 0x00	; 0
    1308:	48 ec       	ldi	r20, 0xC8	; 200
    130a:	51 e4       	ldi	r21, 0x41	; 65
    130c:	0e 94 07 10 	call	0x200e	; 0x200e <__cmpsf2>
    1310:	88 23       	and	r24, r24
    1312:	8c f3       	brlt	.-30     	; 0x12f6 <AC_TEMP_Degree+0x96>

	return degree_ptr ;
}
    1314:	ce 01       	movw	r24, r28
    1316:	01 96       	adiw	r24, 0x01	; 1
    1318:	0f 90       	pop	r0
    131a:	0f 90       	pop	r0
    131c:	df 91       	pop	r29
    131e:	cf 91       	pop	r28
    1320:	1f 91       	pop	r17
    1322:	0f 91       	pop	r16
    1324:	ff 90       	pop	r15
    1326:	ef 90       	pop	r14
    1328:	df 90       	pop	r13
    132a:	cf 90       	pop	r12
    132c:	08 95       	ret

0000132e <AC_Degree>:

/* CONVERT TEMPERATURE SO THAT ADC CAN HANDLE IT	*/

char AC_Degree(char *degree_ptr)
{
    132e:	fc 01       	movw	r30, r24
	char Degree ;
	
	Degree = ( ((*(degree_ptr + 0)) - ('0') ) * 10 ) + ( (*(degree_ptr+1)) - ('0') ) ;
    1330:	81 81       	ldd	r24, Z+1	; 0x01
    1332:	80 51       	subi	r24, 0x10	; 16
    1334:	90 81       	ld	r25, Z
    1336:	99 0f       	add	r25, r25
    1338:	29 2f       	mov	r18, r25
    133a:	22 0f       	add	r18, r18
    133c:	22 0f       	add	r18, r18
    133e:	92 0f       	add	r25, r18
	
	return Degree ;
}
    1340:	89 0f       	add	r24, r25
    1342:	08 95       	ret

00001344 <Guest_Pass>:


/* GETTING GUEST PASSWORD	*/
char Guest_Pass (char * pw_ptr)
{
    1344:	fc 01       	movw	r30, r24
	char pass = 0 ;
	pass = ( (*(pw_ptr+0)) - ('0') ) + ( (*(pw_ptr+1)) - ('0') ) + ( (*(pw_ptr+2)) - ('0') ) + ( (*(pw_ptr+3)) - ('0') ) ;
    1346:	90 81       	ld	r25, Z
    1348:	81 81       	ldd	r24, Z+1	; 0x01
    134a:	89 0f       	add	r24, r25
    134c:	80 5c       	subi	r24, 0xC0	; 192
    134e:	92 81       	ldd	r25, Z+2	; 0x02
    1350:	89 0f       	add	r24, r25
    1352:	93 81       	ldd	r25, Z+3	; 0x03
	
	return pass ;
}
    1354:	89 0f       	add	r24, r25
    1356:	08 95       	ret

00001358 <Chk_Guest_Pass>:


/* CHECK GUEST PASSWORD	*/

char Chk_Guest_Pass (void)
{
    1358:	cf 93       	push	r28
	char Pass = Guest_Pass(LCD_PassDis1());
    135a:	0e 94 28 03 	call	0x650	; 0x650 <LCD_PassDis1>
    135e:	0e 94 a2 09 	call	0x1344	; 0x1344 <Guest_Pass>
    1362:	c8 2f       	mov	r28, r24
	
	if(Pass == EEPROM_vRead(GUEST_addrs))
    1364:	80 e4       	ldi	r24, 0x40	; 64
    1366:	90 e0       	ldi	r25, 0x00	; 0
    1368:	0e 94 e8 02 	call	0x5d0	; 0x5d0 <EEPROM_vRead>
	{
		return HIGH ;
    136c:	91 e0       	ldi	r25, 0x01	; 1
    136e:	c8 13       	cpse	r28, r24
    1370:	90 e0       	ldi	r25, 0x00	; 0
	}
	else
	{
		return LOW ;
	}
}
    1372:	89 2f       	mov	r24, r25
    1374:	cf 91       	pop	r28
    1376:	08 95       	ret

00001378 <Guest_Access_Display>:


/* DISPLAY FIRST ACCESS OF ROOM 1 , 2 AND 3	 .. THE ONLY ACCESSABLE FEATURES FOR GUEST	*/

char Guest_Access_Display (void)
{
    1378:	ff 92       	push	r15
    137a:	0f 93       	push	r16
    137c:	1f 93       	push	r17
    137e:	cf 93       	push	r28
    1380:	df 93       	push	r29
    1382:	cd b7       	in	r28, 0x3d	; 61
    1384:	de b7       	in	r29, 0x3e	; 62
    1386:	6b 97       	sbiw	r28, 0x1b	; 27
    1388:	0f b6       	in	r0, 0x3f	; 63
    138a:	f8 94       	cli
    138c:	de bf       	out	0x3e, r29	; 62
    138e:	0f be       	out	0x3f, r0	; 63
    1390:	cd bf       	out	0x3d, r28	; 61
	char arr0[] = "(0)Room1" ;
    1392:	de 01       	movw	r26, r28
    1394:	11 96       	adiw	r26, 0x01	; 1
    1396:	e3 ec       	ldi	r30, 0xC3	; 195
    1398:	f0 e0       	ldi	r31, 0x00	; 0
    139a:	89 e0       	ldi	r24, 0x09	; 9
    139c:	01 90       	ld	r0, Z+
    139e:	0d 92       	st	X+, r0
    13a0:	81 50       	subi	r24, 0x01	; 1
    13a2:	e1 f7       	brne	.-8      	; 0x139c <Guest_Access_Display+0x24>
	char arr1[] = "(1)Room2";
    13a4:	de 01       	movw	r26, r28
    13a6:	1a 96       	adiw	r26, 0x0a	; 10
    13a8:	ec ec       	ldi	r30, 0xCC	; 204
    13aa:	f0 e0       	ldi	r31, 0x00	; 0
    13ac:	89 e0       	ldi	r24, 0x09	; 9
    13ae:	01 90       	ld	r0, Z+
    13b0:	0d 92       	st	X+, r0
    13b2:	81 50       	subi	r24, 0x01	; 1
    13b4:	e1 f7       	brne	.-8      	; 0x13ae <Guest_Access_Display+0x36>
	char arr2[] = "(2)Room3";
    13b6:	de 01       	movw	r26, r28
    13b8:	53 96       	adiw	r26, 0x13	; 19
    13ba:	ed ed       	ldi	r30, 0xDD	; 221
    13bc:	f0 e0       	ldi	r31, 0x00	; 0
    13be:	89 e0       	ldi	r24, 0x09	; 9
    13c0:	01 90       	ld	r0, Z+
    13c2:	0d 92       	st	X+, r0
    13c4:	81 50       	subi	r24, 0x01	; 1
    13c6:	e1 f7       	brne	.-8      	; 0x13c0 <Guest_Access_Display+0x48>
	
	char key ;
	
	/* Just the shape of Displaying	*/
	
	LCD_vSendCmd(0x01);
    13c8:	81 e0       	ldi	r24, 0x01	; 1
    13ca:	0e 94 70 0b 	call	0x16e0	; 0x16e0 <LCD_vSendCmd>
	LCD_vSDD(ptr0);
    13ce:	ce 01       	movw	r24, r28
    13d0:	01 96       	adiw	r24, 0x01	; 1
    13d2:	0e 94 90 0b 	call	0x1720	; 0x1720 <LCD_vSDD>
	LCD_vMOVECur(1, 10);
    13d6:	81 e0       	ldi	r24, 0x01	; 1
    13d8:	6a e0       	ldi	r22, 0x0A	; 10
    13da:	0e 94 9f 0b 	call	0x173e	; 0x173e <LCD_vMOVECur>
	
	LCD_vSDD(ptr1);
    13de:	ce 01       	movw	r24, r28
    13e0:	0a 96       	adiw	r24, 0x0a	; 10
    13e2:	0e 94 90 0b 	call	0x1720	; 0x1720 <LCD_vSDD>
	LCD_vMOVECur(2,1);
    13e6:	82 e0       	ldi	r24, 0x02	; 2
    13e8:	61 e0       	ldi	r22, 0x01	; 1
    13ea:	0e 94 9f 0b 	call	0x173e	; 0x173e <LCD_vMOVECur>
	
	LCD_vSDD(ptr2);
    13ee:	ce 01       	movw	r24, r28
    13f0:	43 96       	adiw	r24, 0x13	; 19
    13f2:	0e 94 90 0b 	call	0x1720	; 0x1720 <LCD_vSDD>
	LCD_vMOVECur(2,8);
    13f6:	82 e0       	ldi	r24, 0x02	; 2
    13f8:	68 e0       	ldi	r22, 0x08	; 8
    13fa:	0e 94 9f 0b 	call	0x173e	; 0x173e <LCD_vMOVECur>
	
	/* take from keypad 0 or 1 or 2 */
	/* Wait untill a key pressed */
	while(KEYPAD_u8SCAN() == NoScan);
    13fe:	0e 94 d0 0a 	call	0x15a0	; 0x15a0 <KEYPAD_u8SCAN>
    1402:	8f 3f       	cpi	r24, 0xFF	; 255
    1404:	e1 f3       	breq	.-8      	; 0x13fe <Guest_Access_Display+0x86>
	key = KEYPAD_u8SCAN();
    1406:	0e 94 d0 0a 	call	0x15a0	; 0x15a0 <KEYPAD_u8SCAN>
    140a:	f8 2e       	mov	r15, r24
	
	/*	THIS DELAY TO NOT INTERFERE WITH THE ACCESS FUNCTION	*/
	PTR_COUNT->keypad_count = 0;
    140c:	e0 91 79 01 	lds	r30, 0x0179
    1410:	f0 91 7a 01 	lds	r31, 0x017A
    1414:	10 82       	st	Z, r1
	while(PTR_COUNT->keypad_count < Q_SEC);
    1416:	00 91 79 01 	lds	r16, 0x0179
    141a:	10 91 7a 01 	lds	r17, 0x017A
    141e:	f8 01       	movw	r30, r16
    1420:	60 81       	ld	r22, Z
    1422:	70 e0       	ldi	r23, 0x00	; 0
    1424:	80 e0       	ldi	r24, 0x00	; 0
    1426:	90 e0       	ldi	r25, 0x00	; 0
    1428:	0e 94 39 10 	call	0x2072	; 0x2072 <__floatsisf>
    142c:	20 e0       	ldi	r18, 0x00	; 0
    142e:	30 e0       	ldi	r19, 0x00	; 0
    1430:	48 ec       	ldi	r20, 0xC8	; 200
    1432:	51 e4       	ldi	r21, 0x41	; 65
    1434:	0e 94 07 10 	call	0x200e	; 0x200e <__cmpsf2>
    1438:	88 23       	and	r24, r24
    143a:	8c f3       	brlt	.-30     	; 0x141e <Guest_Access_Display+0xa6>
	
	//_delay_ms(250);
	return key ;
}
    143c:	8f 2d       	mov	r24, r15
    143e:	6b 96       	adiw	r28, 0x1b	; 27
    1440:	0f b6       	in	r0, 0x3f	; 63
    1442:	f8 94       	cli
    1444:	de bf       	out	0x3e, r29	; 62
    1446:	0f be       	out	0x3f, r0	; 63
    1448:	cd bf       	out	0x3d, r28	; 61
    144a:	df 91       	pop	r29
    144c:	cf 91       	pop	r28
    144e:	1f 91       	pop	r17
    1450:	0f 91       	pop	r16
    1452:	ff 90       	pop	r15
    1454:	08 95       	ret

00001456 <TWI_vMasterInt>:
	return TWDR;
}*/

	void TWI_vMasterInt()
{
		TWBR = (char)TWBR_val;
    1456:	82 e0       	ldi	r24, 0x02	; 2
    1458:	80 b9       	out	0x00, r24	; 0

}
    145a:	08 95       	ret

0000145c <TWI_Start>:
}

	void TWI_Start()
{
		/*start*/
		TWCR = 0x00;
    145c:	16 be       	out	0x36, r1	; 54
		SET_BIT(TWCR,TWINT); //set falg
    145e:	86 b7       	in	r24, 0x36	; 54
    1460:	80 68       	ori	r24, 0x80	; 128
    1462:	86 bf       	out	0x36, r24	; 54
		SET_BIT(TWCR,TWEN);  //enable I2c
    1464:	86 b7       	in	r24, 0x36	; 54
    1466:	84 60       	ori	r24, 0x04	; 4
    1468:	86 bf       	out	0x36, r24	; 54
		SET_BIT(TWCR,TWSTA);
    146a:	86 b7       	in	r24, 0x36	; 54
    146c:	80 62       	ori	r24, 0x20	; 32
    146e:	86 bf       	out	0x36, r24	; 54
		while(!(READ_BIT_SET(TWCR,TWINT)))
    1470:	06 b6       	in	r0, 0x36	; 54
    1472:	07 fe       	sbrs	r0, 7
    1474:	fd cf       	rjmp	.-6      	; 0x1470 <TWI_Start+0x14>
		{
			//wait
		}
		
		if ((TWSR &0xF8)==0x08)
    1476:	81 b1       	in	r24, 0x01	; 1
		{
			
		}
			
			
}			
    1478:	08 95       	ret

0000147a <TWI_MSendAdrrs>:


	void TWI_MSendAdrrs(char address)
{
		/*send addrs*/
		TWDR= address <<1;
    147a:	88 0f       	add	r24, r24
    147c:	83 b9       	out	0x03, r24	; 3
		SET_BIT(TWCR,TWINT);
    147e:	86 b7       	in	r24, 0x36	; 54
    1480:	80 68       	ori	r24, 0x80	; 128
    1482:	86 bf       	out	0x36, r24	; 54
		
		while(!(READ_BIT_SET(TWCR,TWINT)))
    1484:	06 b6       	in	r0, 0x36	; 54
    1486:	07 fe       	sbrs	r0, 7
    1488:	fd cf       	rjmp	.-6      	; 0x1484 <TWI_MSendAdrrs+0xa>
		{
			//wait
		} 

		if ((TWSR &0xF8)==0x18)
    148a:	81 b1       	in	r24, 0x01	; 1
		{
			
		}


}	
    148c:	08 95       	ret

0000148e <TWI_MSendData>:


	void TWI_MSendData(char data)
{
		/*send data*/
		TWDR = data;
    148e:	83 b9       	out	0x03, r24	; 3
		SET_BIT(TWCR,TWINT);
    1490:	86 b7       	in	r24, 0x36	; 54
    1492:	80 68       	ori	r24, 0x80	; 128
    1494:	86 bf       	out	0x36, r24	; 54
		while(!(READ_BIT_SET(TWCR,TWINT)))
    1496:	06 b6       	in	r0, 0x36	; 54
    1498:	07 fe       	sbrs	r0, 7
    149a:	fd cf       	rjmp	.-6      	; 0x1496 <TWI_MSendData+0x8>
		{
			//wait
		} 
		
		if ((TWSR &0xF8)==0x28)
    149c:	81 b1       	in	r24, 0x01	; 1
		else
		{
			
		}

}	
    149e:	08 95       	ret

000014a0 <TWI_MStop>:
	
		
	void TWI_MStop()
{
		/*stop*/
		SET_BIT(TWCR,TWSTO);
    14a0:	86 b7       	in	r24, 0x36	; 54
    14a2:	80 61       	ori	r24, 0x10	; 16
    14a4:	86 bf       	out	0x36, r24	; 54
		SET_BIT(TWCR,TWINT);
    14a6:	86 b7       	in	r24, 0x36	; 54
    14a8:	80 68       	ori	r24, 0x80	; 128
    14aa:	86 bf       	out	0x36, r24	; 54
}
    14ac:	08 95       	ret

000014ae <TWI_MasterTrans>:
{
		TWBR = (char)TWBR_val;

}
	void TWI_MasterTrans(char address, char data)
{
    14ae:	cf 93       	push	r28
    14b0:	df 93       	push	r29
    14b2:	d8 2f       	mov	r29, r24
    14b4:	c6 2f       	mov	r28, r22
		TWI_Start();
    14b6:	0e 94 2e 0a 	call	0x145c	; 0x145c <TWI_Start>
		TWI_MSendAdrrs(address);
    14ba:	8d 2f       	mov	r24, r29
    14bc:	0e 94 3d 0a 	call	0x147a	; 0x147a <TWI_MSendAdrrs>
		TWI_MSendData(data);
    14c0:	8c 2f       	mov	r24, r28
    14c2:	0e 94 47 0a 	call	0x148e	; 0x148e <TWI_MSendData>
		TWI_MStop();
    14c6:	0e 94 50 0a 	call	0x14a0	; 0x14a0 <TWI_MStop>

	
}
    14ca:	df 91       	pop	r29
    14cc:	cf 91       	pop	r28
    14ce:	08 95       	ret

000014d0 <TWI_vSlvint>:
				
					
	void TWI_vSlvint(char address)
{
	
		TWAR =address<<1;	
    14d0:	88 0f       	add	r24, r24
    14d2:	82 b9       	out	0x02, r24	; 2
		SET_BIT(TWCR,TWINT); // say slave addr
    14d4:	86 b7       	in	r24, 0x36	; 54
    14d6:	80 68       	ori	r24, 0x80	; 128
    14d8:	86 bf       	out	0x36, r24	; 54
		SET_BIT(TWCR,TWEN); //
    14da:	86 b7       	in	r24, 0x36	; 54
    14dc:	84 60       	ori	r24, 0x04	; 4
    14de:	86 bf       	out	0x36, r24	; 54
		SET_BIT(TWCR,TWEA); // send ack	
    14e0:	86 b7       	in	r24, 0x36	; 54
    14e2:	80 64       	ori	r24, 0x40	; 64
    14e4:	86 bf       	out	0x36, r24	; 54
	
}
    14e6:	08 95       	ret

000014e8 <TWI_Slaveavilb>:


	char TWI_Slaveavilb()
{
	
		SET_BIT(TWCR,TWINT);
    14e8:	86 b7       	in	r24, 0x36	; 54
    14ea:	80 68       	ori	r24, 0x80	; 128
    14ec:	86 bf       	out	0x36, r24	; 54
		
		while(!(READ_BIT_SET(TWCR,TWINT)))
    14ee:	06 b6       	in	r0, 0x36	; 54
    14f0:	07 fe       	sbrs	r0, 7
    14f2:	fd cf       	rjmp	.-6      	; 0x14ee <TWI_Slaveavilb+0x6>
		{
			
		}
			
		if ((TWSR &0xF8)==0x60)
    14f4:	91 b1       	in	r25, 0x01	; 1
    14f6:	98 7f       	andi	r25, 0xF8	; 248
		{
			return 1;
    14f8:	81 e0       	ldi	r24, 0x01	; 1
    14fa:	90 36       	cpi	r25, 0x60	; 96
    14fc:	09 f0       	breq	.+2      	; 0x1500 <TWI_Slaveavilb+0x18>
    14fe:	80 e0       	ldi	r24, 0x00	; 0
			return 0;
		}
				
		
	
}
    1500:	08 95       	ret

00001502 <TWI_Read>:


	char TWI_Read()
{
		DDRA = 0XFF;
    1502:	8f ef       	ldi	r24, 0xFF	; 255
    1504:	8a bb       	out	0x1a, r24	; 26
		SET_BIT(TWCR,TWINT);
    1506:	86 b7       	in	r24, 0x36	; 54
    1508:	80 68       	ori	r24, 0x80	; 128
    150a:	86 bf       	out	0x36, r24	; 54
		SET_BIT(TWCR,TWEN);
    150c:	86 b7       	in	r24, 0x36	; 54
    150e:	84 60       	ori	r24, 0x04	; 4
    1510:	86 bf       	out	0x36, r24	; 54
		SET_BIT(TWCR,TWEA);
    1512:	86 b7       	in	r24, 0x36	; 54
    1514:	80 64       	ori	r24, 0x40	; 64
    1516:	86 bf       	out	0x36, r24	; 54
		while(!(READ_BIT_SET(TWCR,TWINT)))
    1518:	06 b6       	in	r0, 0x36	; 54
    151a:	07 fe       	sbrs	r0, 7
    151c:	fd cf       	rjmp	.-6      	; 0x1518 <TWI_Read+0x16>
		{
			
		}
		DDRB = 0XFF;
    151e:	8f ef       	ldi	r24, 0xFF	; 255
    1520:	87 bb       	out	0x17, r24	; 23
		return TWDR;
    1522:	83 b1       	in	r24, 0x03	; 3
    1524:	08 95       	ret

00001526 <KEYPAD_VINIT>:
//#include "DIO.h"
#include "COMMON_CONFIG.h"

	void KEYPAD_VINIT()
{
		DIO_vsetpindirection(PORT,PIN0,1);
    1526:	84 e4       	ldi	r24, 0x44	; 68
    1528:	60 e0       	ldi	r22, 0x00	; 0
    152a:	41 e0       	ldi	r20, 0x01	; 1
    152c:	0e 94 67 00 	call	0xce	; 0xce <DIO_vsetpindirection>
		DIO_vsetpindirection(PORT,PIN1,1);
    1530:	84 e4       	ldi	r24, 0x44	; 68
    1532:	61 e0       	ldi	r22, 0x01	; 1
    1534:	41 e0       	ldi	r20, 0x01	; 1
    1536:	0e 94 67 00 	call	0xce	; 0xce <DIO_vsetpindirection>
		DIO_vsetpindirection(PORT,PIN2,1);
    153a:	84 e4       	ldi	r24, 0x44	; 68
    153c:	62 e0       	ldi	r22, 0x02	; 2
    153e:	41 e0       	ldi	r20, 0x01	; 1
    1540:	0e 94 67 00 	call	0xce	; 0xce <DIO_vsetpindirection>
		DIO_vsetpindirection(PORT,PIN3,1);
    1544:	84 e4       	ldi	r24, 0x44	; 68
    1546:	63 e0       	ldi	r22, 0x03	; 3
    1548:	41 e0       	ldi	r20, 0x01	; 1
    154a:	0e 94 67 00 	call	0xce	; 0xce <DIO_vsetpindirection>
		DIO_vsetpindirection(PORT,PIN4,0);
    154e:	84 e4       	ldi	r24, 0x44	; 68
    1550:	64 e0       	ldi	r22, 0x04	; 4
    1552:	40 e0       	ldi	r20, 0x00	; 0
    1554:	0e 94 67 00 	call	0xce	; 0xce <DIO_vsetpindirection>
		DIO_vsetpindirection(PORT,PIN5,0);
    1558:	84 e4       	ldi	r24, 0x44	; 68
    155a:	65 e0       	ldi	r22, 0x05	; 5
    155c:	40 e0       	ldi	r20, 0x00	; 0
    155e:	0e 94 67 00 	call	0xce	; 0xce <DIO_vsetpindirection>
		DIO_vsetpindirection(PORT,PIN6,0);
    1562:	84 e4       	ldi	r24, 0x44	; 68
    1564:	66 e0       	ldi	r22, 0x06	; 6
    1566:	40 e0       	ldi	r20, 0x00	; 0
    1568:	0e 94 67 00 	call	0xce	; 0xce <DIO_vsetpindirection>
		DIO_vsetpindirection(PORT,PIN7,0);
    156c:	84 e4       	ldi	r24, 0x44	; 68
    156e:	67 e0       	ldi	r22, 0x07	; 7
    1570:	40 e0       	ldi	r20, 0x00	; 0
    1572:	0e 94 67 00 	call	0xce	; 0xce <DIO_vsetpindirection>
	
		DIO_vWrite(PORT ,PIN4,HIGH);
    1576:	84 e4       	ldi	r24, 0x44	; 68
    1578:	64 e0       	ldi	r22, 0x04	; 4
    157a:	41 e0       	ldi	r20, 0x01	; 1
    157c:	0e 94 f8 00 	call	0x1f0	; 0x1f0 <DIO_vWrite>
		DIO_vWrite(PORT ,PIN5,HIGH);
    1580:	84 e4       	ldi	r24, 0x44	; 68
    1582:	65 e0       	ldi	r22, 0x05	; 5
    1584:	41 e0       	ldi	r20, 0x01	; 1
    1586:	0e 94 f8 00 	call	0x1f0	; 0x1f0 <DIO_vWrite>
		DIO_vWrite(PORT ,PIN6,HIGH);
    158a:	84 e4       	ldi	r24, 0x44	; 68
    158c:	66 e0       	ldi	r22, 0x06	; 6
    158e:	41 e0       	ldi	r20, 0x01	; 1
    1590:	0e 94 f8 00 	call	0x1f0	; 0x1f0 <DIO_vWrite>
		DIO_vWrite(PORT ,PIN7,HIGH);
    1594:	84 e4       	ldi	r24, 0x44	; 68
    1596:	67 e0       	ldi	r22, 0x07	; 7
    1598:	41 e0       	ldi	r20, 0x01	; 1
    159a:	0e 94 f8 00 	call	0x1f0	; 0x1f0 <DIO_vWrite>
}
    159e:	08 95       	ret

000015a0 <KEYPAD_u8SCAN>:

	unsigned char KEYPAD_u8SCAN() 
{		
    15a0:	cf 92       	push	r12
    15a2:	df 92       	push	r13
    15a4:	ff 92       	push	r15
    15a6:	0f 93       	push	r16
    15a8:	1f 93       	push	r17
    15aa:	cf 93       	push	r28
    15ac:	df 93       	push	r29
    15ae:	cd b7       	in	r28, 0x3d	; 61
    15b0:	de b7       	in	r29, 0x3e	; 62
    15b2:	60 97       	sbiw	r28, 0x10	; 16
    15b4:	0f b6       	in	r0, 0x3f	; 63
    15b6:	f8 94       	cli
    15b8:	de bf       	out	0x3e, r29	; 62
    15ba:	0f be       	out	0x3f, r0	; 63
    15bc:	cd bf       	out	0x3d, r28	; 61
		char row,col;
	
			for(row=0; row<4;row++) 
    15be:	00 e0       	ldi	r16, 0x00	; 0
				DIO_vWrite(PORT ,row,LOW);
		 

				for (col=0;col<4;col++)
				{
					char KEYPAD[4][4]={{'7','8','9','/'},{'4','5','6','*'},{'1','2','3','-'},{'o','0','=','+'}};
    15c0:	0f 2e       	mov	r0, r31
    15c2:	f6 e6       	ldi	r31, 0x66	; 102
    15c4:	cf 2e       	mov	r12, r31
    15c6:	f1 e0       	ldi	r31, 0x01	; 1
    15c8:	df 2e       	mov	r13, r31
    15ca:	f0 2d       	mov	r31, r0
    15cc:	ff 24       	eor	r15, r15
    15ce:	68 94       	set
    15d0:	f4 f8       	bld	r15, 4
{		
		char row,col;
	
			for(row=0; row<4;row++) 
			{
				DIO_vWrite(PORT ,PIN0,HIGH);
    15d2:	84 e4       	ldi	r24, 0x44	; 68
    15d4:	60 e0       	ldi	r22, 0x00	; 0
    15d6:	41 e0       	ldi	r20, 0x01	; 1
    15d8:	0e 94 f8 00 	call	0x1f0	; 0x1f0 <DIO_vWrite>
				DIO_vWrite(PORT ,PIN1,HIGH);
    15dc:	84 e4       	ldi	r24, 0x44	; 68
    15de:	61 e0       	ldi	r22, 0x01	; 1
    15e0:	41 e0       	ldi	r20, 0x01	; 1
    15e2:	0e 94 f8 00 	call	0x1f0	; 0x1f0 <DIO_vWrite>
				DIO_vWrite(PORT ,PIN2,HIGH);
    15e6:	84 e4       	ldi	r24, 0x44	; 68
    15e8:	62 e0       	ldi	r22, 0x02	; 2
    15ea:	41 e0       	ldi	r20, 0x01	; 1
    15ec:	0e 94 f8 00 	call	0x1f0	; 0x1f0 <DIO_vWrite>
				DIO_vWrite(PORT ,PIN3,HIGH);
    15f0:	84 e4       	ldi	r24, 0x44	; 68
    15f2:	63 e0       	ldi	r22, 0x03	; 3
    15f4:	41 e0       	ldi	r20, 0x01	; 1
    15f6:	0e 94 f8 00 	call	0x1f0	; 0x1f0 <DIO_vWrite>
				DIO_vWrite(PORT ,row,LOW);
    15fa:	84 e4       	ldi	r24, 0x44	; 68
    15fc:	60 2f       	mov	r22, r16
    15fe:	40 e0       	ldi	r20, 0x00	; 0
    1600:	0e 94 f8 00 	call	0x1f0	; 0x1f0 <DIO_vWrite>
		 

				for (col=0;col<4;col++)
    1604:	10 e0       	ldi	r17, 0x00	; 0
				{
					char KEYPAD[4][4]={{'7','8','9','/'},{'4','5','6','*'},{'1','2','3','-'},{'o','0','=','+'}};
    1606:	de 01       	movw	r26, r28
    1608:	11 96       	adiw	r26, 0x01	; 1
    160a:	f6 01       	movw	r30, r12
    160c:	8f 2d       	mov	r24, r15
    160e:	01 90       	ld	r0, Z+
    1610:	0d 92       	st	X+, r0
    1612:	81 50       	subi	r24, 0x01	; 1
    1614:	e1 f7       	brne	.-8      	; 0x160e <KEYPAD_u8SCAN+0x6e>
						
					char temp =	 DIO_vRead (PORT ,(col +4));
    1616:	61 2f       	mov	r22, r17
    1618:	6c 5f       	subi	r22, 0xFC	; 252
    161a:	84 e4       	ldi	r24, 0x44	; 68
    161c:	0e 94 d6 01 	call	0x3ac	; 0x3ac <DIO_vRead>
					
						if (temp==0)
    1620:	88 23       	and	r24, r24
    1622:	61 f4       	brne	.+24     	; 0x163c <KEYPAD_u8SCAN+0x9c>
						{
			 				 return KEYPAD[row][col];
    1624:	e0 2f       	mov	r30, r16
    1626:	f0 e0       	ldi	r31, 0x00	; 0
    1628:	ee 0f       	add	r30, r30
    162a:	ff 1f       	adc	r31, r31
    162c:	ee 0f       	add	r30, r30
    162e:	ff 1f       	adc	r31, r31
    1630:	e1 0f       	add	r30, r17
    1632:	f1 1d       	adc	r31, r1
    1634:	ec 0f       	add	r30, r28
    1636:	fd 1f       	adc	r31, r29
    1638:	81 81       	ldd	r24, Z+1	; 0x01
    163a:	07 c0       	rjmp	.+14     	; 0x164a <KEYPAD_u8SCAN+0xaa>
				DIO_vWrite(PORT ,PIN2,HIGH);
				DIO_vWrite(PORT ,PIN3,HIGH);
				DIO_vWrite(PORT ,row,LOW);
		 

				for (col=0;col<4;col++)
    163c:	1f 5f       	subi	r17, 0xFF	; 255
    163e:	14 30       	cpi	r17, 0x04	; 4
    1640:	11 f7       	brne	.-60     	; 0x1606 <KEYPAD_u8SCAN+0x66>

	unsigned char KEYPAD_u8SCAN() 
{		
		char row,col;
	
			for(row=0; row<4;row++) 
    1642:	0f 5f       	subi	r16, 0xFF	; 255
    1644:	04 30       	cpi	r16, 0x04	; 4
    1646:	29 f6       	brne	.-118    	; 0x15d2 <KEYPAD_u8SCAN+0x32>
				}
	
			}
			
	
		return NoScan;
    1648:	8f ef       	ldi	r24, 0xFF	; 255
}
    164a:	60 96       	adiw	r28, 0x10	; 16
    164c:	0f b6       	in	r0, 0x3f	; 63
    164e:	f8 94       	cli
    1650:	de bf       	out	0x3e, r29	; 62
    1652:	0f be       	out	0x3f, r0	; 63
    1654:	cd bf       	out	0x3d, r28	; 61
    1656:	df 91       	pop	r29
    1658:	cf 91       	pop	r28
    165a:	1f 91       	pop	r17
    165c:	0f 91       	pop	r16
    165e:	ff 90       	pop	r15
    1660:	df 90       	pop	r13
    1662:	cf 90       	pop	r12
    1664:	08 95       	ret

00001666 <SEVENSEG_vint>:


	void SEVENSEG_vint()
{
	
		DIO_vsetpindirection(PORTT,PIN0,1);
    1666:	82 e4       	ldi	r24, 0x42	; 66
    1668:	60 e0       	ldi	r22, 0x00	; 0
    166a:	41 e0       	ldi	r20, 0x01	; 1
    166c:	0e 94 67 00 	call	0xce	; 0xce <DIO_vsetpindirection>
		DIO_vsetpindirection(PORTT,PIN1,1);
    1670:	82 e4       	ldi	r24, 0x42	; 66
    1672:	61 e0       	ldi	r22, 0x01	; 1
    1674:	41 e0       	ldi	r20, 0x01	; 1
    1676:	0e 94 67 00 	call	0xce	; 0xce <DIO_vsetpindirection>
		DIO_vsetpindirection(PORTT,PIN2,1);
    167a:	82 e4       	ldi	r24, 0x42	; 66
    167c:	62 e0       	ldi	r22, 0x02	; 2
    167e:	41 e0       	ldi	r20, 0x01	; 1
    1680:	0e 94 67 00 	call	0xce	; 0xce <DIO_vsetpindirection>
		DIO_vsetpindirection(PORTT,PIN3,1);
    1684:	82 e4       	ldi	r24, 0x42	; 66
    1686:	63 e0       	ldi	r22, 0x03	; 3
    1688:	41 e0       	ldi	r20, 0x01	; 1
    168a:	0e 94 67 00 	call	0xce	; 0xce <DIO_vsetpindirection>
		DIO_vsetpindirection(PORTT,PIN4,1);
    168e:	82 e4       	ldi	r24, 0x42	; 66
    1690:	64 e0       	ldi	r22, 0x04	; 4
    1692:	41 e0       	ldi	r20, 0x01	; 1
    1694:	0e 94 67 00 	call	0xce	; 0xce <DIO_vsetpindirection>
		DIO_vsetpindirection(PORTT,PIN5,1);
    1698:	82 e4       	ldi	r24, 0x42	; 66
    169a:	65 e0       	ldi	r22, 0x05	; 5
    169c:	41 e0       	ldi	r20, 0x01	; 1
    169e:	0e 94 67 00 	call	0xce	; 0xce <DIO_vsetpindirection>
		DIO_vsetpindirection(PORTT,PIN6,1);
    16a2:	82 e4       	ldi	r24, 0x42	; 66
    16a4:	66 e0       	ldi	r22, 0x06	; 6
    16a6:	41 e0       	ldi	r20, 0x01	; 1
    16a8:	0e 94 67 00 	call	0xce	; 0xce <DIO_vsetpindirection>
		DIO_vsetpindirection(PORTT,PIN7,1);
    16ac:	82 e4       	ldi	r24, 0x42	; 66
    16ae:	67 e0       	ldi	r22, 0x07	; 7
    16b0:	41 e0       	ldi	r20, 0x01	; 1
    16b2:	0e 94 67 00 	call	0xce	; 0xce <DIO_vsetpindirection>
}
    16b6:	08 95       	ret

000016b8 <SEVENSEG_display>:
	


	void SEVENSEG_display(char dig)
{
    16b8:	68 2f       	mov	r22, r24
		DIO_vPORTSET(PORT, dig);
    16ba:	84 e4       	ldi	r24, 0x44	; 68
    16bc:	0e 94 cc 02 	call	0x598	; 0x598 <DIO_vPORTSET>
    16c0:	08 95       	ret

000016c2 <SFE>:
//#define  F_CPU 8000000ul
#include "COMMON_CONFIG.h"
	void SFE()
{
	
		SET_BIT(PORTB,EN_LCD);
    16c2:	c0 9a       	sbi	0x18, 0	; 24
	#else
		//round up by default
		__ticks_dc = (uint32_t)(ceil(fabs(__tmp)));
	#endif

	__builtin_avr_delay_cycles(__ticks_dc);
    16c4:	8f e3       	ldi	r24, 0x3F	; 63
    16c6:	9c e9       	ldi	r25, 0x9C	; 156
    16c8:	01 97       	sbiw	r24, 0x01	; 1
    16ca:	f1 f7       	brne	.-4      	; 0x16c8 <SFE+0x6>
    16cc:	00 c0       	rjmp	.+0      	; 0x16ce <SFE+0xc>
    16ce:	00 00       	nop
		_delay_ms(20);
		CLR_BIT(PORTB,EN_LCD);
    16d0:	c0 98       	cbi	0x18, 0	; 24
    16d2:	8f e3       	ldi	r24, 0x3F	; 63
    16d4:	9c e9       	ldi	r25, 0x9C	; 156
    16d6:	01 97       	sbiw	r24, 0x01	; 1
    16d8:	f1 f7       	brne	.-4      	; 0x16d6 <SFE+0x14>
    16da:	00 c0       	rjmp	.+0      	; 0x16dc <SFE+0x1a>
    16dc:	00 00       	nop
		_delay_ms(20);
}
    16de:	08 95       	ret

000016e0 <LCD_vSendCmd>:
	
}

	void LCD_vSendCmd(char cmd)
{
		PORTA =cmd;
    16e0:	8b bb       	out	0x1b, r24	; 27
		CLR_BIT (PORTB,RS_LCD);
    16e2:	c2 98       	cbi	0x18, 2	; 24
		SFE();
    16e4:	0e 94 61 0b 	call	0x16c2	; 0x16c2 <SFE>
}
    16e8:	08 95       	ret

000016ea <LCD_vint>:
		_delay_ms(20);
}

	void LCD_vint()
{
		DDRA =0xff;
    16ea:	8f ef       	ldi	r24, 0xFF	; 255
    16ec:	8a bb       	out	0x1a, r24	; 26
		DDRB |=0x07;
    16ee:	87 b3       	in	r24, 0x17	; 23
    16f0:	87 60       	ori	r24, 0x07	; 7
    16f2:	87 bb       	out	0x17, r24	; 23
		CLR_BIT(PORTB,RW_LCD);
    16f4:	c1 98       	cbi	0x18, 1	; 24
		LCD_vSendCmd(0x38);
    16f6:	88 e3       	ldi	r24, 0x38	; 56
    16f8:	0e 94 70 0b 	call	0x16e0	; 0x16e0 <LCD_vSendCmd>
		LCD_vSendCmd(0x01);
    16fc:	81 e0       	ldi	r24, 0x01	; 1
    16fe:	0e 94 70 0b 	call	0x16e0	; 0x16e0 <LCD_vSendCmd>
		LCD_vSendCmd(0x0e);
    1702:	8e e0       	ldi	r24, 0x0E	; 14
    1704:	0e 94 70 0b 	call	0x16e0	; 0x16e0 <LCD_vSendCmd>
    1708:	8f e3       	ldi	r24, 0x3F	; 63
    170a:	9c e9       	ldi	r25, 0x9C	; 156
    170c:	01 97       	sbiw	r24, 0x01	; 1
    170e:	f1 f7       	brne	.-4      	; 0x170c <LCD_vint+0x22>
    1710:	00 c0       	rjmp	.+0      	; 0x1712 <LCD_vint+0x28>
    1712:	00 00       	nop
		_delay_ms(20);
	
	
}
    1714:	08 95       	ret

00001716 <LCD_vsenddata>:
}
	
	
	void LCD_vsenddata(char data)
{
	  PORTA = data;
    1716:	8b bb       	out	0x1b, r24	; 27
	  SET_BIT(PORTB,RS_LCD);
    1718:	c2 9a       	sbi	0x18, 2	; 24
	  SFE();
    171a:	0e 94 61 0b 	call	0x16c2	; 0x16c2 <SFE>
}
    171e:	08 95       	ret

00001720 <LCD_vSDD>:
	
	void LCD_vSDD(char *NM)
{
    1720:	cf 93       	push	r28
    1722:	df 93       	push	r29
    1724:	ec 01       	movw	r28, r24
				
		while((*NM) !='\0')
    1726:	88 81       	ld	r24, Y
    1728:	88 23       	and	r24, r24
    172a:	31 f0       	breq	.+12     	; 0x1738 <LCD_vSDD+0x18>
	  PORTA = data;
	  SET_BIT(PORTB,RS_LCD);
	  SFE();
}
	
	void LCD_vSDD(char *NM)
    172c:	21 96       	adiw	r28, 0x01	; 1
{
				
		while((*NM) !='\0')
		{
			LCD_vsenddata(*NM);
    172e:	0e 94 8b 0b 	call	0x1716	; 0x1716 <LCD_vsenddata>
}
	
	void LCD_vSDD(char *NM)
{
				
		while((*NM) !='\0')
    1732:	89 91       	ld	r24, Y+
    1734:	88 23       	and	r24, r24
    1736:	d9 f7       	brne	.-10     	; 0x172e <LCD_vSDD+0xe>
		{
			LCD_vsenddata(*NM);
			NM++;
		
		}
}
    1738:	df 91       	pop	r29
    173a:	cf 91       	pop	r28
    173c:	08 95       	ret

0000173e <LCD_vMOVECur>:

	void LCD_vMOVECur(char row,char col)
{	
		char temp;
	
			if (1==row)
    173e:	81 30       	cpi	r24, 0x01	; 1
    1740:	19 f4       	brne	.+6      	; 0x1748 <LCD_vMOVECur+0xa>
			{
				temp =0x80 + (col-1); 
    1742:	96 2f       	mov	r25, r22
    1744:	91 58       	subi	r25, 0x81	; 129
    1746:	04 c0       	rjmp	.+8      	; 0x1750 <LCD_vMOVECur+0x12>
			}
		
			else if (2==row)
    1748:	82 30       	cpi	r24, 0x02	; 2
    174a:	11 f4       	brne	.+4      	; 0x1750 <LCD_vMOVECur+0x12>
			{
				temp =0xC0 + (col-1);
    174c:	96 2f       	mov	r25, r22
    174e:	91 54       	subi	r25, 0x41	; 65
			}
	
		LCD_vSendCmd(temp);
    1750:	89 2f       	mov	r24, r25
    1752:	0e 94 70 0b 	call	0x16e0	; 0x16e0 <LCD_vSendCmd>
}
    1756:	08 95       	ret

00001758 <LCD_print>:

	
	void LCD_print(char *str)
	{
    1758:	0f 93       	push	r16
    175a:	1f 93       	push	r17
    175c:	cf 93       	push	r28
    175e:	8c 01       	movw	r16, r24
		unsigned char i = 0;
		
		while(str[i] != 0)
    1760:	fc 01       	movw	r30, r24
    1762:	80 81       	ld	r24, Z
    1764:	88 23       	and	r24, r24
    1766:	51 f0       	breq	.+20     	; 0x177c <LCD_print+0x24>
}

	
	void LCD_print(char *str)
	{
		unsigned char i = 0;
    1768:	c0 e0       	ldi	r28, 0x00	; 0
		
		while(str[i] != 0)
		{
			LCD_vsenddata(str[i]);
    176a:	0e 94 8b 0b 	call	0x1716	; 0x1716 <LCD_vsenddata>
			i++;
    176e:	cf 5f       	subi	r28, 0xFF	; 255
	
	void LCD_print(char *str)
	{
		unsigned char i = 0;
		
		while(str[i] != 0)
    1770:	f8 01       	movw	r30, r16
    1772:	ec 0f       	add	r30, r28
    1774:	f1 1d       	adc	r31, r1
    1776:	80 81       	ld	r24, Z
    1778:	88 23       	and	r24, r24
    177a:	b9 f7       	brne	.-18     	; 0x176a <LCD_print+0x12>
		{
			LCD_vsenddata(str[i]);
			i++;
		}
	}
    177c:	cf 91       	pop	r28
    177e:	1f 91       	pop	r17
    1780:	0f 91       	pop	r16
    1782:	08 95       	ret

00001784 <LCD_LD>:


	void LCD_LD(unsigned char col, unsigned char row)
	{
    1784:	cf 93       	push	r28
    1786:	df 93       	push	r29
    1788:	00 d0       	rcall	.+0      	; 0x178a <LCD_LD+0x6>
    178a:	00 d0       	rcall	.+0      	; 0x178c <LCD_LD+0x8>
    178c:	cd b7       	in	r28, 0x3d	; 61
    178e:	de b7       	in	r29, 0x3e	; 62
	unsigned char firstcharAdr[] = {0x80, 0xC0, 0x94, 0xD4};
    1790:	90 e8       	ldi	r25, 0x80	; 128
    1792:	99 83       	std	Y+1, r25	; 0x01
    1794:	90 ec       	ldi	r25, 0xC0	; 192
    1796:	9a 83       	std	Y+2, r25	; 0x02
    1798:	94 e9       	ldi	r25, 0x94	; 148
    179a:	9b 83       	std	Y+3, r25	; 0x03
    179c:	94 ed       	ldi	r25, 0xD4	; 212
    179e:	9c 83       	std	Y+4, r25	; 0x04
	LCD_vSendCmd(firstcharAdr[row-1] + col - 1);
    17a0:	81 50       	subi	r24, 0x01	; 1
    17a2:	fe 01       	movw	r30, r28
    17a4:	e6 0f       	add	r30, r22
    17a6:	f1 1d       	adc	r31, r1
    17a8:	90 81       	ld	r25, Z
    17aa:	89 0f       	add	r24, r25
    17ac:	0e 94 70 0b 	call	0x16e0	; 0x16e0 <LCD_vSendCmd>
	#else
		//round up by default
		__ticks_dc = (uint32_t)(ceil(fabs(__tmp)));
	#endif

	__builtin_avr_delay_cycles(__ticks_dc);
    17b0:	87 ec       	ldi	r24, 0xC7	; 199
    17b2:	90 e0       	ldi	r25, 0x00	; 0
    17b4:	01 97       	sbiw	r24, 0x01	; 1
    17b6:	f1 f7       	brne	.-4      	; 0x17b4 <LCD_LD+0x30>
    17b8:	00 c0       	rjmp	.+0      	; 0x17ba <LCD_LD+0x36>
    17ba:	00 00       	nop
	_delay_us(100);
}
    17bc:	0f 90       	pop	r0
    17be:	0f 90       	pop	r0
    17c0:	0f 90       	pop	r0
    17c2:	0f 90       	pop	r0
    17c4:	df 91       	pop	r29
    17c6:	cf 91       	pop	r28
    17c8:	08 95       	ret

000017ca <LCD_vCLEARS>:
	#else
		//round up by default
		__ticks_dc = (uint32_t)(ceil(fabs(__tmp)));
	#endif

	__builtin_avr_delay_cycles(__ticks_dc);
    17ca:	8f ef       	ldi	r24, 0xFF	; 255
    17cc:	99 e6       	ldi	r25, 0x69	; 105
    17ce:	a8 e1       	ldi	r26, 0x18	; 24
    17d0:	81 50       	subi	r24, 0x01	; 1
    17d2:	90 40       	sbci	r25, 0x00	; 0
    17d4:	a0 40       	sbci	r26, 0x00	; 0
    17d6:	e1 f7       	brne	.-8      	; 0x17d0 <LCD_vCLEARS+0x6>
    17d8:	00 c0       	rjmp	.+0      	; 0x17da <LCD_vCLEARS+0x10>
    17da:	00 00       	nop
	
	
	void LCD_vCLEARS()
{
		_delay_ms(1000);
		LCD_vSendCmd (CLR_DIS);
    17dc:	81 e0       	ldi	r24, 0x01	; 1
    17de:	0e 94 70 0b 	call	0x16e0	; 0x16e0 <LCD_vSendCmd>
		
		LCD_LD(1,1);
    17e2:	81 e0       	ldi	r24, 0x01	; 1
    17e4:	61 e0       	ldi	r22, 0x01	; 1
    17e6:	0e 94 c2 0b 	call	0x1784	; 0x1784 <LCD_LD>
	
}	
    17ea:	08 95       	ret

000017ec <SFE4>:
//#define  F_CPU 8000000ul
#include "COMMON_CONFIG.h"
	void SFE4()
{
	
		SET_BIT(PORTB,RS_LCD);
    17ec:	c2 9a       	sbi	0x18, 2	; 24
    17ee:	8f ef       	ldi	r24, 0xFF	; 255
    17f0:	90 e7       	ldi	r25, 0x70	; 112
    17f2:	a2 e0       	ldi	r26, 0x02	; 2
    17f4:	81 50       	subi	r24, 0x01	; 1
    17f6:	90 40       	sbci	r25, 0x00	; 0
    17f8:	a0 40       	sbci	r26, 0x00	; 0
    17fa:	e1 f7       	brne	.-8      	; 0x17f4 <SFE4+0x8>
    17fc:	00 c0       	rjmp	.+0      	; 0x17fe <SFE4+0x12>
    17fe:	00 00       	nop
		_delay_ms(100);
		CLR_BIT(PORTB,RS_LCD);
    1800:	c2 98       	cbi	0x18, 2	; 24
    1802:	8f ef       	ldi	r24, 0xFF	; 255
    1804:	90 e7       	ldi	r25, 0x70	; 112
    1806:	a2 e0       	ldi	r26, 0x02	; 2
    1808:	81 50       	subi	r24, 0x01	; 1
    180a:	90 40       	sbci	r25, 0x00	; 0
    180c:	a0 40       	sbci	r26, 0x00	; 0
    180e:	e1 f7       	brne	.-8      	; 0x1808 <SFE4+0x1c>
    1810:	00 c0       	rjmp	.+0      	; 0x1812 <SFE4+0x26>
    1812:	00 00       	nop
		_delay_ms(100);
	
}
    1814:	08 95       	ret

00001816 <LCD4_vSendCmd>:
	
	
}

	void LCD4_vSendCmd(char cmd)
{
    1816:	cf 93       	push	r28
    1818:	c8 2f       	mov	r28, r24
		CLR_BIT (PORTB,RS_LCD);
    181a:	c2 98       	cbi	0x18, 2	; 24
		PORTA &=0x0f;
    181c:	8b b3       	in	r24, 0x1b	; 27
    181e:	8f 70       	andi	r24, 0x0F	; 15
    1820:	8b bb       	out	0x1b, r24	; 27
		PORTA |=(cmd& 0xf0);
    1822:	8b b3       	in	r24, 0x1b	; 27
    1824:	9c 2f       	mov	r25, r28
    1826:	90 7f       	andi	r25, 0xF0	; 240
    1828:	89 2b       	or	r24, r25
    182a:	8b bb       	out	0x1b, r24	; 27
		SFE4();
    182c:	0e 94 f6 0b 	call	0x17ec	; 0x17ec <SFE4>
		PORTA &=0x0f;
    1830:	8b b3       	in	r24, 0x1b	; 27
    1832:	8f 70       	andi	r24, 0x0F	; 15
    1834:	8b bb       	out	0x1b, r24	; 27
		PORTA |= (cmd<<4);
    1836:	8b b3       	in	r24, 0x1b	; 27
    1838:	c2 95       	swap	r28
    183a:	c0 7f       	andi	r28, 0xF0	; 240
    183c:	c8 2b       	or	r28, r24
    183e:	cb bb       	out	0x1b, r28	; 27
		SFE4();
    1840:	0e 94 f6 0b 	call	0x17ec	; 0x17ec <SFE4>
}
    1844:	cf 91       	pop	r28
    1846:	08 95       	ret

00001848 <LCD4_vint>:
	
}

	void LCD4_vint()
{
		DDRA =0xf0;
    1848:	80 ef       	ldi	r24, 0xF0	; 240
    184a:	8a bb       	out	0x1a, r24	; 26
		DDRB |=0x0e;
    184c:	87 b3       	in	r24, 0x17	; 23
    184e:	8e 60       	ori	r24, 0x0E	; 14
    1850:	87 bb       	out	0x17, r24	; 23
		CLR_BIT(PORTB,RW_LCD);
    1852:	c1 98       	cbi	0x18, 1	; 24
		LCD4_vSendCmd(0x33);
    1854:	83 e3       	ldi	r24, 0x33	; 51
    1856:	0e 94 0b 0c 	call	0x1816	; 0x1816 <LCD4_vSendCmd>
		LCD4_vSendCmd(0x32);
    185a:	82 e3       	ldi	r24, 0x32	; 50
    185c:	0e 94 0b 0c 	call	0x1816	; 0x1816 <LCD4_vSendCmd>
		LCD4_vSendCmd(0x28);
    1860:	88 e2       	ldi	r24, 0x28	; 40
    1862:	0e 94 0b 0c 	call	0x1816	; 0x1816 <LCD4_vSendCmd>
		LCD4_vSendCmd(0x01);
    1866:	81 e0       	ldi	r24, 0x01	; 1
    1868:	0e 94 0b 0c 	call	0x1816	; 0x1816 <LCD4_vSendCmd>
		LCD4_vSendCmd(0x0e);
    186c:	8e e0       	ldi	r24, 0x0E	; 14
    186e:	0e 94 0b 0c 	call	0x1816	; 0x1816 <LCD4_vSendCmd>
    1872:	8f e3       	ldi	r24, 0x3F	; 63
    1874:	9c e9       	ldi	r25, 0x9C	; 156
    1876:	01 97       	sbiw	r24, 0x01	; 1
    1878:	f1 f7       	brne	.-4      	; 0x1876 <LCD4_vint+0x2e>
    187a:	00 c0       	rjmp	.+0      	; 0x187c <LCD4_vint+0x34>
    187c:	00 00       	nop
		_delay_ms(20);
	
	
}
    187e:	08 95       	ret

00001880 <LCD4_vsenddata>:
		PORTA |= (cmd<<4);
		SFE4();
}

	void LCD4_vsenddata(char data)
{
    1880:	cf 93       	push	r28
    1882:	c8 2f       	mov	r28, r24
		SET_BIT (PORTB,RS_LCD);
    1884:	c2 9a       	sbi	0x18, 2	; 24
		PORTA &=0x0f;
    1886:	8b b3       	in	r24, 0x1b	; 27
    1888:	8f 70       	andi	r24, 0x0F	; 15
    188a:	8b bb       	out	0x1b, r24	; 27
		PORTA |=(data& 0xf0);
    188c:	8b b3       	in	r24, 0x1b	; 27
    188e:	9c 2f       	mov	r25, r28
    1890:	90 7f       	andi	r25, 0xF0	; 240
    1892:	89 2b       	or	r24, r25
    1894:	8b bb       	out	0x1b, r24	; 27
		SFE4();
    1896:	0e 94 f6 0b 	call	0x17ec	; 0x17ec <SFE4>
		PORTA &=0x0f;
    189a:	8b b3       	in	r24, 0x1b	; 27
    189c:	8f 70       	andi	r24, 0x0F	; 15
    189e:	8b bb       	out	0x1b, r24	; 27
		PORTA |= (data<<4);
    18a0:	8b b3       	in	r24, 0x1b	; 27
    18a2:	c2 95       	swap	r28
    18a4:	c0 7f       	andi	r28, 0xF0	; 240
    18a6:	c8 2b       	or	r28, r24
    18a8:	cb bb       	out	0x1b, r28	; 27
		SFE4();
    18aa:	0e 94 f6 0b 	call	0x17ec	; 0x17ec <SFE4>
}
    18ae:	cf 91       	pop	r28
    18b0:	08 95       	ret

000018b2 <LCD4_vSDD>:

	void LCD4_vSDD(char *NM)
{
    18b2:	cf 93       	push	r28
    18b4:	df 93       	push	r29
    18b6:	ec 01       	movw	r28, r24
	
		while(*NM !='\0')
    18b8:	88 81       	ld	r24, Y
    18ba:	88 23       	and	r24, r24
    18bc:	31 f0       	breq	.+12     	; 0x18ca <LCD4_vSDD+0x18>
		PORTA &=0x0f;
		PORTA |= (data<<4);
		SFE4();
}

	void LCD4_vSDD(char *NM)
    18be:	21 96       	adiw	r28, 0x01	; 1
{
	
		while(*NM !='\0')
		{
			LCD4_vsenddata(*NM);
    18c0:	0e 94 40 0c 	call	0x1880	; 0x1880 <LCD4_vsenddata>
}

	void LCD4_vSDD(char *NM)
{
	
		while(*NM !='\0')
    18c4:	89 91       	ld	r24, Y+
    18c6:	88 23       	and	r24, r24
    18c8:	d9 f7       	brne	.-10     	; 0x18c0 <LCD4_vSDD+0xe>
		{
			LCD4_vsenddata(*NM);
			NM++;
		
		}
}
    18ca:	df 91       	pop	r29
    18cc:	cf 91       	pop	r28
    18ce:	08 95       	ret

000018d0 <LCD4_vMOVECur>:

	void LCD4_vMOVECur(char row,char col)
{
		char temp;
		
			if (row==1)
    18d0:	81 30       	cpi	r24, 0x01	; 1
    18d2:	19 f4       	brne	.+6      	; 0x18da <LCD4_vMOVECur+0xa>
			{
				temp =0x80+col-1; 
    18d4:	96 2f       	mov	r25, r22
    18d6:	91 58       	subi	r25, 0x81	; 129
    18d8:	04 c0       	rjmp	.+8      	; 0x18e2 <LCD4_vMOVECur+0x12>
			}
	
			else if (row==2)
    18da:	82 30       	cpi	r24, 0x02	; 2
    18dc:	11 f4       	brne	.+4      	; 0x18e2 <LCD4_vMOVECur+0x12>
			{
		
				temp =0xC0+col-1;
    18de:	96 2f       	mov	r25, r22
    18e0:	91 54       	subi	r25, 0x41	; 65
			}
	
		LCD4_vSendCmd(temp);
    18e2:	89 2f       	mov	r24, r25
    18e4:	0e 94 0b 0c 	call	0x1816	; 0x1816 <LCD4_vSendCmd>
}
    18e8:	08 95       	ret

000018ea <LCD4_print>:


void LCD4_print(char *str)
{
    18ea:	0f 93       	push	r16
    18ec:	1f 93       	push	r17
    18ee:	cf 93       	push	r28
    18f0:	8c 01       	movw	r16, r24
	unsigned char i = 0;
			
	while(str[i] != 0)
    18f2:	fc 01       	movw	r30, r24
    18f4:	80 81       	ld	r24, Z
    18f6:	88 23       	and	r24, r24
    18f8:	51 f0       	breq	.+20     	; 0x190e <LCD4_print+0x24>
}


void LCD4_print(char *str)
{
	unsigned char i = 0;
    18fa:	c0 e0       	ldi	r28, 0x00	; 0
			
	while(str[i] != 0)
	{
		LCD4_vsenddata(str[i]);
    18fc:	0e 94 40 0c 	call	0x1880	; 0x1880 <LCD4_vsenddata>
		i++;
    1900:	cf 5f       	subi	r28, 0xFF	; 255

void LCD4_print(char *str)
{
	unsigned char i = 0;
			
	while(str[i] != 0)
    1902:	f8 01       	movw	r30, r16
    1904:	ec 0f       	add	r30, r28
    1906:	f1 1d       	adc	r31, r1
    1908:	80 81       	ld	r24, Z
    190a:	88 23       	and	r24, r24
    190c:	b9 f7       	brne	.-18     	; 0x18fc <LCD4_print+0x12>
	{
		LCD4_vsenddata(str[i]);
		i++;
	}
}
    190e:	cf 91       	pop	r28
    1910:	1f 91       	pop	r17
    1912:	0f 91       	pop	r16
    1914:	08 95       	ret

00001916 <LCD4_LD>:


void LCD4_LD(unsigned char x, unsigned char y)
{
    1916:	cf 93       	push	r28
    1918:	df 93       	push	r29
    191a:	00 d0       	rcall	.+0      	; 0x191c <LCD4_LD+0x6>
    191c:	00 d0       	rcall	.+0      	; 0x191e <LCD4_LD+0x8>
    191e:	cd b7       	in	r28, 0x3d	; 61
    1920:	de b7       	in	r29, 0x3e	; 62
unsigned char firstcharAdr[] = {0x80, 0xC0, 0x94, 0xD4};
    1922:	90 e8       	ldi	r25, 0x80	; 128
    1924:	99 83       	std	Y+1, r25	; 0x01
    1926:	90 ec       	ldi	r25, 0xC0	; 192
    1928:	9a 83       	std	Y+2, r25	; 0x02
    192a:	94 e9       	ldi	r25, 0x94	; 148
    192c:	9b 83       	std	Y+3, r25	; 0x03
    192e:	94 ed       	ldi	r25, 0xD4	; 212
    1930:	9c 83       	std	Y+4, r25	; 0x04
LCD4_vSendCmd(firstcharAdr[y-1] + x - 1);
    1932:	81 50       	subi	r24, 0x01	; 1
    1934:	fe 01       	movw	r30, r28
    1936:	e6 0f       	add	r30, r22
    1938:	f1 1d       	adc	r31, r1
    193a:	90 81       	ld	r25, Z
    193c:	89 0f       	add	r24, r25
    193e:	0e 94 0b 0c 	call	0x1816	; 0x1816 <LCD4_vSendCmd>
	#else
		//round up by default
		__ticks_dc = (uint32_t)(ceil(fabs(__tmp)));
	#endif

	__builtin_avr_delay_cycles(__ticks_dc);
    1942:	87 ec       	ldi	r24, 0xC7	; 199
    1944:	90 e0       	ldi	r25, 0x00	; 0
    1946:	01 97       	sbiw	r24, 0x01	; 1
    1948:	f1 f7       	brne	.-4      	; 0x1946 <LCD4_LD+0x30>
    194a:	00 c0       	rjmp	.+0      	; 0x194c <LCD4_LD+0x36>
    194c:	00 00       	nop
 _delay_us(100);
    194e:	0f 90       	pop	r0
    1950:	0f 90       	pop	r0
    1952:	0f 90       	pop	r0
    1954:	0f 90       	pop	r0
    1956:	df 91       	pop	r29
    1958:	cf 91       	pop	r28
    195a:	08 95       	ret

0000195c <LCD4_vCLEARS>:
}


	void LCD4_vCLEARS()
{	
		LCD_vSendCmd (CLR_DIS);
    195c:	81 e0       	ldi	r24, 0x01	; 1
    195e:	0e 94 70 0b 	call	0x16e0	; 0x16e0 <LCD_vSendCmd>
	#else
		//round up by default
		__ticks_dc = (uint32_t)(ceil(fabs(__tmp)));
	#endif

	__builtin_avr_delay_cycles(__ticks_dc);
    1962:	8f ef       	ldi	r24, 0xFF	; 255
    1964:	93 ed       	ldi	r25, 0xD3	; 211
    1966:	a0 e3       	ldi	r26, 0x30	; 48
    1968:	81 50       	subi	r24, 0x01	; 1
    196a:	90 40       	sbci	r25, 0x00	; 0
    196c:	a0 40       	sbci	r26, 0x00	; 0
    196e:	e1 f7       	brne	.-8      	; 0x1968 <LCD4_vCLEARS+0xc>
    1970:	00 c0       	rjmp	.+0      	; 0x1972 <LCD4_vCLEARS+0x16>
    1972:	00 00       	nop
		_delay_ms(2000);
		LCD4_LD(1,1);
    1974:	81 e0       	ldi	r24, 0x01	; 1
    1976:	61 e0       	ldi	r22, 0x01	; 1
    1978:	0e 94 8b 0c 	call	0x1916	; 0x1916 <LCD4_LD>
		
		
}
    197c:	08 95       	ret

0000197e <LED_vInit>:
 */ 
#include <avr/io.h>
#include "LED.h"

void  LED_vInit(char portname,char pinnum){
	DIO_vsetpindirection(portname,pinnum,1);
    197e:	90 e0       	ldi	r25, 0x00	; 0
    1980:	70 e0       	ldi	r23, 0x00	; 0
    1982:	41 e0       	ldi	r20, 0x01	; 1
    1984:	50 e0       	ldi	r21, 0x00	; 0
    1986:	0e 94 67 00 	call	0xce	; 0xce <DIO_vsetpindirection>
	
}
    198a:	08 95       	ret

0000198c <LED_vON>:
void LED_vON(char portname,char pinnum){
	DIO_vWrite(portname ,pinnum,HIGH);
    198c:	90 e0       	ldi	r25, 0x00	; 0
    198e:	70 e0       	ldi	r23, 0x00	; 0
    1990:	41 e0       	ldi	r20, 0x01	; 1
    1992:	50 e0       	ldi	r21, 0x00	; 0
    1994:	0e 94 f8 00 	call	0x1f0	; 0x1f0 <DIO_vWrite>
}	
    1998:	08 95       	ret

0000199a <LED_vOFF>:
void LED_vOFF(char portname,char pinnum){
	DIO_vWrite(portname ,pinnum,LOW);
    199a:	90 e0       	ldi	r25, 0x00	; 0
    199c:	70 e0       	ldi	r23, 0x00	; 0
    199e:	40 e0       	ldi	r20, 0x00	; 0
    19a0:	50 e0       	ldi	r21, 0x00	; 0
    19a2:	0e 94 f8 00 	call	0x1f0	; 0x1f0 <DIO_vWrite>
}
    19a6:	08 95       	ret

000019a8 <LED_vTOGGLE>:
void LED_vTOGGLE(char portname,char pinnum)
{
	
	 DIO_vToggle(portname ,pinnum);
    19a8:	90 e0       	ldi	r25, 0x00	; 0
    19aa:	70 e0       	ldi	r23, 0x00	; 0
    19ac:	0e 94 89 01 	call	0x312	; 0x312 <DIO_vToggle>
    19b0:	08 95       	ret

000019b2 <main>:


#include "COMMON_CONFIG.h"

int main(void)
{
    19b2:	cf 93       	push	r28
    19b4:	df 93       	push	r29
    19b6:	cd b7       	in	r28, 0x3d	; 61
    19b8:	de b7       	in	r29, 0x3e	; 62
    19ba:	60 97       	sbiw	r28, 0x10	; 16
    19bc:	0f b6       	in	r0, 0x3f	; 63
    19be:	f8 94       	cli
    19c0:	de bf       	out	0x3e, r29	; 62
    19c2:	0f be       	out	0x3f, r0	; 63
    19c4:	cd bf       	out	0x3d, r28	; 61
	/*******	INITILAIZATIONS		***********/
	tot_inti();
    19c6:	0e 94 ef 02 	call	0x5de	; 0x5de <tot_inti>
	
	/*******************************************/
	
	/*	WRITING CONST PASSWORD ZERO ON GUEST PASSWORD ADDRESS IN EEPROM	*/
	EEPROM_vWrite(stop , GUEST_addrs);
    19ca:	80 e0       	ldi	r24, 0x00	; 0
    19cc:	60 e4       	ldi	r22, 0x40	; 64
    19ce:	70 e0       	ldi	r23, 0x00	; 0
    19d0:	0e 94 e0 02 	call	0x5c0	; 0x5c0 <EEPROM_vWrite>
	
	
	Counters c1 ;
	Acess a1 ;
	
	PTR_COUNT = &c1 ;
    19d4:	ce 01       	movw	r24, r28
    19d6:	01 96       	adiw	r24, 0x01	; 1
    19d8:	90 93 7a 01 	sts	0x017A, r25
    19dc:	80 93 79 01 	sts	0x0179, r24
	PTR_ACESS = &a1 ;
    19e0:	ce 01       	movw	r24, r28
    19e2:	0a 96       	adiw	r24, 0x0a	; 10
    19e4:	90 93 78 01 	sts	0x0178, r25
    19e8:	80 93 77 01 	sts	0x0177, r24
	
	/* POWER FOR INDICACTORS LEDS */
	LED_Power;
    19ec:	8f ef       	ldi	r24, 0xFF	; 255
    19ee:	84 bb       	out	0x14, r24	; 20
				
				while( (PTR_COUNT->BlockCount1) < FIVE_MIN ){
					
					/* EACH 10 sec INCREMENT THE VALUE IN EEPROM	*/
					
					if((PTR_COUNT->BlockCount1 % TICK) == 1){
    19f0:	0f 2e       	mov	r0, r31
    19f2:	fa e0       	ldi	r31, 0x0A	; 10
    19f4:	ef 2e       	mov	r14, r31
    19f6:	ff 24       	eor	r15, r15
    19f8:	f0 2d       	mov	r31, r0
				
				CLR_BIT( LED_PORT , Block_led);	/* BLOCKED LED OFF */
				SET_BIT( LED_PORT , Logout_led);	/* LOG OUT LED ON */
				
				/* TURNING THE KEYPAD ON AGAIN		*/
				keypad = keyon ;
    19fa:	0f 2e       	mov	r0, r31
    19fc:	ff e0       	ldi	r31, 0x0F	; 15
    19fe:	df 2e       	mov	r13, r31
    1a00:	f0 2d       	mov	r31, r0
	} BLOCK DISPLAY */
	/****************************************************************/
	
	while(1)
	{
		Welcome_Message();
    1a02:	0e 94 fa 02 	call	0x5f4	; 0x5f4 <Welcome_Message>
		
		Logout:
		CLR_BIT( LED_PORT , Login_led);	/* LOG IN LED OFF */
    1a06:	a8 98       	cbi	0x15, 0	; 21
		SET_BIT( LED_PORT , Logout_led);	/* LOG OUT LED ON */
    1a08:	a9 9a       	sbi	0x15, 1	; 21
		
		/*	START DISPLAY OF CHOOSING ADMIN OR GUEST	*/
		PTR_ACESS->Admin_or_Guest = LCD_StrtDis();
    1a0a:	00 91 77 01 	lds	r16, 0x0177
    1a0e:	10 91 78 01 	lds	r17, 0x0178
    1a12:	0e 94 01 03 	call	0x602	; 0x602 <LCD_StrtDis>
    1a16:	f8 01       	movw	r30, r16
    1a18:	86 83       	std	Z+6, r24	; 0x06
		
		/* CHECK IF THE USER CHOOSED ADMIN OR GUEST */
		if(PTR_ACESS->Admin_or_Guest == Admin){
    1a1a:	e0 91 77 01 	lds	r30, 0x0177
    1a1e:	f0 91 78 01 	lds	r31, 0x0178
    1a22:	86 81       	ldd	r24, Z+6	; 0x06
    1a24:	81 33       	cpi	r24, 0x31	; 49
    1a26:	09 f0       	breq	.+2      	; 0x1a2a <main+0x78>
    1a28:	7b c1       	rjmp	.+758    	; 0x1d20 <main+0x36e>
			
			/* CHECK IF THERE'S AN OLD PASSWORD OR NOT */
			if(Check_NoPass() == FAIL){
    1a2a:	0e 94 f3 04 	call	0x9e6	; 0x9e6 <Check_NoPass>
    1a2e:	88 23       	and	r24, r24
    1a30:	19 f4       	brne	.+6      	; 0x1a38 <main+0x86>
				Set_Pass();					/* SET YOUR NEW PASSWORD */
    1a32:	0e 94 fd 04 	call	0x9fa	; 0x9fa <Set_Pass>
				goto acess ;
    1a36:	63 c0       	rjmp	.+198    	; 0x1afe <main+0x14c>
			}
			
			else if(Check_NoPass() == PASS){	/* IF THERE'S A PASSWORD	*/
    1a38:	0e 94 f3 04 	call	0x9e6	; 0x9e6 <Check_NoPass>
    1a3c:	81 30       	cpi	r24, 0x01	; 1
    1a3e:	09 f7       	brne	.-62     	; 0x1a02 <main+0x50>
			
			/* ASKING THE PASSWORD FOR THREE ATEMPTS THEN BLOCK IT FOR 15 MINS	*/
			EnterPw:	
			Block(Check_Password_Correct());
    1a40:	0e 94 5c 04 	call	0x8b8	; 0x8b8 <Check_Password_Correct>
    1a44:	0e 94 e5 04 	call	0x9ca	; 0x9ca <Block>
			
			/*	WRONG PASSWORD 3 TIMES = BLOCK >> */
			if(EEPROM_vRead(BLock_Addrs) == FAIL){
    1a48:	80 e2       	ldi	r24, 0x20	; 32
    1a4a:	90 e0       	ldi	r25, 0x00	; 0
    1a4c:	0e 94 e8 02 	call	0x5d0	; 0x5d0 <EEPROM_vRead>
    1a50:	88 23       	and	r24, r24
    1a52:	09 f0       	breq	.+2      	; 0x1a56 <main+0xa4>
    1a54:	52 c0       	rjmp	.+164    	; 0x1afa <main+0x148>
				/* BLOCKING CODE HERE */
				
				PTR_COUNT->BlockCount1 = 0 ;
    1a56:	e0 91 79 01 	lds	r30, 0x0179
    1a5a:	f0 91 7a 01 	lds	r31, 0x017A
    1a5e:	10 86       	std	Z+8, r1	; 0x08
    1a60:	17 82       	std	Z+7, r1	; 0x07
				PTR_COUNT->EEPROM_count = 0 ;
    1a62:	13 82       	std	Z+3, r1	; 0x03
				
				
				Power_OFF:
				/* SHUTTING DOWN THE KEYPAD		*/			
				keypad = stop ;
    1a64:	11 ba       	out	0x11, r1	; 17
				
				SET_BIT( LED_PORT , Block_led);	/* BLOCKED LED ON */
    1a66:	aa 9a       	sbi	0x15, 2	; 21
				CLR_BIT( LED_PORT , Logout_led);	/* LOG OUT LED OFF */
    1a68:	a9 98       	cbi	0x15, 1	; 21
				
				/*	WAIT UNTILL 15 MINS OF BLOCKING ARE OVER	*/
				
				while( (PTR_COUNT->BlockCount1) < FIVE_MIN ){
    1a6a:	34 c0       	rjmp	.+104    	; 0x1ad4 <main+0x122>
					
					/* EACH 10 sec INCREMENT THE VALUE IN EEPROM	*/
					
					if((PTR_COUNT->BlockCount1 % TICK) == 1){
    1a6c:	87 81       	ldd	r24, Z+7	; 0x07
    1a6e:	90 85       	ldd	r25, Z+8	; 0x08
    1a70:	b7 01       	movw	r22, r14
    1a72:	0e 94 4c 11 	call	0x2298	; 0x2298 <__udivmodhi4>
    1a76:	81 30       	cpi	r24, 0x01	; 1
    1a78:	91 05       	cpc	r25, r1
    1a7a:	41 f4       	brne	.+16     	; 0x1a8c <main+0xda>
						(PTR_COUNT->EEPROM_count) += 1 ;
    1a7c:	83 81       	ldd	r24, Z+3	; 0x03
    1a7e:	8f 5f       	subi	r24, 0xFF	; 255
    1a80:	83 83       	std	Z+3, r24	; 0x03
						EEPROM_vWrite(PTR_COUNT->EEPROM_count , Blocked_count);
    1a82:	83 81       	ldd	r24, Z+3	; 0x03
    1a84:	60 e3       	ldi	r22, 0x30	; 48
    1a86:	70 e0       	ldi	r23, 0x00	; 0
    1a88:	0e 94 e0 02 	call	0x5c0	; 0x5c0 <EEPROM_vWrite>
					}
				/*	RAEDING THE ADDRESS OF BLOCK STATE AT EEPROM	*/
				PTR_COUNT->BlockAdressCounter = EEPROM_vRead(Blocked_count) ;
    1a8c:	00 91 79 01 	lds	r16, 0x0179
    1a90:	10 91 7a 01 	lds	r17, 0x017A
    1a94:	80 e3       	ldi	r24, 0x30	; 48
    1a96:	90 e0       	ldi	r25, 0x00	; 0
    1a98:	0e 94 e8 02 	call	0x5d0	; 0x5d0 <EEPROM_vRead>
    1a9c:	f8 01       	movw	r30, r16
    1a9e:	84 83       	std	Z+4, r24	; 0x04

				if( PTR_COUNT->BlockAdressCounter < FIVE_MINUTES )
    1aa0:	e0 91 79 01 	lds	r30, 0x0179
    1aa4:	f0 91 7a 01 	lds	r31, 0x017A
    1aa8:	84 81       	ldd	r24, Z+4	; 0x04
    1aaa:	82 33       	cpi	r24, 0x32	; 50
    1aac:	98 f4       	brcc	.+38     	; 0x1ad4 <main+0x122>
				{
					((PTR_COUNT->BlockCount1) =( PTR_COUNT->BlockAdressCounter *TICK)) ;
    1aae:	24 81       	ldd	r18, Z+4	; 0x04
    1ab0:	82 2f       	mov	r24, r18
    1ab2:	90 e0       	ldi	r25, 0x00	; 0
    1ab4:	88 0f       	add	r24, r24
    1ab6:	99 1f       	adc	r25, r25
    1ab8:	9c 01       	movw	r18, r24
    1aba:	22 0f       	add	r18, r18
    1abc:	33 1f       	adc	r19, r19
    1abe:	22 0f       	add	r18, r18
    1ac0:	33 1f       	adc	r19, r19
    1ac2:	82 0f       	add	r24, r18
    1ac4:	93 1f       	adc	r25, r19
    1ac6:	90 87       	std	Z+8, r25	; 0x08
    1ac8:	87 83       	std	Z+7, r24	; 0x07
					((PTR_COUNT->EEPROM_count) = (PTR_COUNT->BlockAdressCounter)) ;
    1aca:	84 81       	ldd	r24, Z+4	; 0x04
    1acc:	83 83       	std	Z+3, r24	; 0x03
					
					/* BLOCK DISPLAY */
					BlockPower();
    1ace:	0e 94 c5 04 	call	0x98a	; 0x98a <BlockPower>
					goto Power_OFF ;
    1ad2:	c8 cf       	rjmp	.-112    	; 0x1a64 <main+0xb2>
				SET_BIT( LED_PORT , Block_led);	/* BLOCKED LED ON */
				CLR_BIT( LED_PORT , Logout_led);	/* LOG OUT LED OFF */
				
				/*	WAIT UNTILL 15 MINS OF BLOCKING ARE OVER	*/
				
				while( (PTR_COUNT->BlockCount1) < FIVE_MIN ){
    1ad4:	e0 91 79 01 	lds	r30, 0x0179
    1ad8:	f0 91 7a 01 	lds	r31, 0x017A
    1adc:	87 81       	ldd	r24, Z+7	; 0x07
    1ade:	90 85       	ldd	r25, Z+8	; 0x08
    1ae0:	2b e0       	ldi	r18, 0x0B	; 11
    1ae2:	88 3b       	cpi	r24, 0xB8	; 184
    1ae4:	92 07       	cpc	r25, r18
    1ae6:	10 f2       	brcs	.-124    	; 0x1a6c <main+0xba>
				}
				}
				
				/* AFTER BLOCKING CLEAR THE EEPROM AGAIN	*/
				
				EEPROM_vWrite(CLEAR , Blocked_count) ;
    1ae8:	8f ef       	ldi	r24, 0xFF	; 255
    1aea:	60 e3       	ldi	r22, 0x30	; 48
    1aec:	70 e0       	ldi	r23, 0x00	; 0
    1aee:	0e 94 e0 02 	call	0x5c0	; 0x5c0 <EEPROM_vWrite>
				
				/*************************************************/
				
				CLR_BIT( LED_PORT , Block_led);	/* BLOCKED LED OFF */
    1af2:	aa 98       	cbi	0x15, 2	; 21
				SET_BIT( LED_PORT , Logout_led);	/* LOG OUT LED ON */
    1af4:	a9 9a       	sbi	0x15, 1	; 21
				
				/* TURNING THE KEYPAD ON AGAIN		*/
				keypad = keyon ;
    1af6:	d1 ba       	out	0x11, r13	; 17
				
				goto EnterPw ;
    1af8:	a3 cf       	rjmp	.-186    	; 0x1a40 <main+0x8e>
				
			}
			
			else{	/* ACCESSING THE HOUSE AS ADMIN	*/
			
			SET_BIT( LED_PORT , Login_led);	/* LOG IN LED ON */
    1afa:	a8 9a       	sbi	0x15, 0	; 21
			CLR_BIT( LED_PORT , Logout_led);	/* LOG OUT LED OFF */
    1afc:	a9 98       	cbi	0x15, 1	; 21
			
			acess:
			/* GETTING FIRST CHOICE FROM USER	*/
			
			PTR_ACESS->FirstAcessRead = Access_Display1();
    1afe:	00 91 77 01 	lds	r16, 0x0177
    1b02:	10 91 78 01 	lds	r17, 0x0178
    1b06:	0e 94 9c 05 	call	0xb38	; 0xb38 <Access_Display1>
    1b0a:	f8 01       	movw	r30, r16
    1b0c:	80 83       	st	Z, r24
			if (PTR_ACESS->FirstAcessRead != NEXT){
    1b0e:	00 91 77 01 	lds	r16, 0x0177
    1b12:	10 91 78 01 	lds	r17, 0x0178
    1b16:	f8 01       	movw	r30, r16
    1b18:	80 81       	ld	r24, Z
    1b1a:	8d 32       	cpi	r24, 0x2D	; 45
    1b1c:	09 f4       	brne	.+2      	; 0x1b20 <main+0x16e>
    1b1e:	47 c0       	rjmp	.+142    	; 0x1bae <main+0x1fc>
				
				/*	ROOM1 and ROOM2	*/
				
				switch(PTR_ACESS->FirstAcessRead){
    1b20:	80 33       	cpi	r24, 0x30	; 48
    1b22:	21 f0       	breq	.+8      	; 0x1b2c <main+0x17a>
    1b24:	81 33       	cpi	r24, 0x31	; 49
    1b26:	09 f0       	breq	.+2      	; 0x1b2a <main+0x178>
    1b28:	6c cf       	rjmp	.-296    	; 0x1a02 <main+0x50>
    1b2a:	20 c0       	rjmp	.+64     	; 0x1b6c <main+0x1ba>
					case ROOM1:
					/*		SENDING ROOM1 TO SLAVE	*/
					SPI_vTransf(ROOM1);
    1b2c:	80 e3       	ldi	r24, 0x30	; 48
    1b2e:	0e 94 68 0f 	call	0x1ed0	; 0x1ed0 <SPI_vTransf>
					
					/* DISPLAY OF ACCESSING ROOM 1 */
					PTR_ACESS->AccessHouse = Rooms_Access_Display(ROOM1);
    1b32:	00 91 77 01 	lds	r16, 0x0177
    1b36:	10 91 78 01 	lds	r17, 0x0178
    1b3a:	80 e3       	ldi	r24, 0x30	; 48
    1b3c:	0e 94 7a 06 	call	0xcf4	; 0xcf4 <Rooms_Access_Display>
    1b40:	f8 01       	movw	r30, r16
    1b42:	82 83       	std	Z+2, r24	; 0x02
					
					/*	MENU CHOICE		*/
					if(PTR_ACESS->AccessHouse == PASS){
    1b44:	e0 91 77 01 	lds	r30, 0x0177
    1b48:	f0 91 78 01 	lds	r31, 0x0178
    1b4c:	82 81       	ldd	r24, Z+2	; 0x02
    1b4e:	81 30       	cpi	r24, 0x01	; 1
    1b50:	b1 f2       	breq	.-84     	; 0x1afe <main+0x14c>
						goto acess ;
					}
					/*	LOGOUT HOUSE CHOICE	*/
					else if(PTR_ACESS->AccessHouse == FAIL){
    1b52:	88 23       	and	r24, r24
    1b54:	09 f0       	breq	.+2      	; 0x1b58 <main+0x1a6>
    1b56:	55 cf       	rjmp	.-342    	; 0x1a02 <main+0x50>
						SPI_vTransf(LOGOUT_SLAVE);
    1b58:	89 e3       	ldi	r24, 0x39	; 57
    1b5a:	0e 94 68 0f 	call	0x1ed0	; 0x1ed0 <SPI_vTransf>
    1b5e:	8f e0       	ldi	r24, 0x0F	; 15
    1b60:	97 e2       	ldi	r25, 0x27	; 39
    1b62:	01 97       	sbiw	r24, 0x01	; 1
    1b64:	f1 f7       	brne	.-4      	; 0x1b62 <main+0x1b0>
    1b66:	00 c0       	rjmp	.+0      	; 0x1b68 <main+0x1b6>
    1b68:	00 00       	nop
    1b6a:	4d cf       	rjmp	.-358    	; 0x1a06 <main+0x54>
					}
					break;
					
					case ROOM2:
					/*		SENDING ROOM2 TO SLAVE		*/
					SPI_vTransf(ROOM2);
    1b6c:	81 e3       	ldi	r24, 0x31	; 49
    1b6e:	0e 94 68 0f 	call	0x1ed0	; 0x1ed0 <SPI_vTransf>
					
					/* DISPLAY OF ACCESSING ROOM 2 */
					PTR_ACESS->AccessHouse = Rooms_Access_Display(ROOM2);
    1b72:	00 91 77 01 	lds	r16, 0x0177
    1b76:	10 91 78 01 	lds	r17, 0x0178
    1b7a:	81 e3       	ldi	r24, 0x31	; 49
    1b7c:	0e 94 7a 06 	call	0xcf4	; 0xcf4 <Rooms_Access_Display>
    1b80:	f8 01       	movw	r30, r16
    1b82:	82 83       	std	Z+2, r24	; 0x02
					
					/*	MENU CHOICE		*/
					if(PTR_ACESS->AccessHouse == PASS){
    1b84:	e0 91 77 01 	lds	r30, 0x0177
    1b88:	f0 91 78 01 	lds	r31, 0x0178
    1b8c:	82 81       	ldd	r24, Z+2	; 0x02
    1b8e:	81 30       	cpi	r24, 0x01	; 1
    1b90:	09 f4       	brne	.+2      	; 0x1b94 <main+0x1e2>
    1b92:	d0 c0       	rjmp	.+416    	; 0x1d34 <main+0x382>
						goto acess2 ;
					}
					/*	LOGOUT HOUSE CHOICE	*/
					else if(PTR_ACESS->AccessHouse == FAIL){
    1b94:	88 23       	and	r24, r24
    1b96:	09 f0       	breq	.+2      	; 0x1b9a <main+0x1e8>
    1b98:	34 cf       	rjmp	.-408    	; 0x1a02 <main+0x50>
						SPI_vTransf(LOGOUT_SLAVE);
    1b9a:	89 e3       	ldi	r24, 0x39	; 57
    1b9c:	0e 94 68 0f 	call	0x1ed0	; 0x1ed0 <SPI_vTransf>
    1ba0:	8f e0       	ldi	r24, 0x0F	; 15
    1ba2:	97 e2       	ldi	r25, 0x27	; 39
    1ba4:	01 97       	sbiw	r24, 0x01	; 1
    1ba6:	f1 f7       	brne	.-4      	; 0x1ba4 <main+0x1f2>
    1ba8:	00 c0       	rjmp	.+0      	; 0x1baa <main+0x1f8>
    1baa:	00 00       	nop
    1bac:	2c cf       	rjmp	.-424    	; 0x1a06 <main+0x54>
			}
			
			else if(PTR_ACESS->FirstAcessRead == NEXT){
				/* GETTING SECOND CHOICE FROM USER	*/
				
				PTR_ACESS->SecondAcessRead = Access_Display2();
    1bae:	0e 94 0b 06 	call	0xc16	; 0xc16 <Access_Display2>
    1bb2:	f8 01       	movw	r30, r16
    1bb4:	81 83       	std	Z+1, r24	; 0x01
				
				/*	ROOM3 , AIRCONDITION and T.V	*/

				switch(PTR_ACESS->SecondAcessRead){
    1bb6:	e0 91 77 01 	lds	r30, 0x0177
    1bba:	f0 91 78 01 	lds	r31, 0x0178
    1bbe:	81 81       	ldd	r24, Z+1	; 0x01
    1bc0:	83 33       	cpi	r24, 0x33	; 51
    1bc2:	31 f1       	breq	.+76     	; 0x1c10 <main+0x25e>
    1bc4:	84 33       	cpi	r24, 0x34	; 52
    1bc6:	09 f4       	brne	.+2      	; 0x1bca <main+0x218>
    1bc8:	5d c0       	rjmp	.+186    	; 0x1c84 <main+0x2d2>
    1bca:	82 33       	cpi	r24, 0x32	; 50
    1bcc:	09 f0       	breq	.+2      	; 0x1bd0 <main+0x21e>
    1bce:	19 cf       	rjmp	.-462    	; 0x1a02 <main+0x50>
					case ROOM3:
					/*		ROOM3 CODE		*/
					
					/*		SENDING ROOM3 TO SLAVE		*/
					SPI_vTransf(ROOM3);
    1bd0:	0e 94 68 0f 	call	0x1ed0	; 0x1ed0 <SPI_vTransf>
					
					/* DISPLAY OF ACCESSING ROOM 3 */
					PTR_ACESS->AccessHouse = Rooms_Access_Display(ROOM3);
    1bd4:	00 91 77 01 	lds	r16, 0x0177
    1bd8:	10 91 78 01 	lds	r17, 0x0178
    1bdc:	82 e3       	ldi	r24, 0x32	; 50
    1bde:	0e 94 7a 06 	call	0xcf4	; 0xcf4 <Rooms_Access_Display>
    1be2:	f8 01       	movw	r30, r16
    1be4:	82 83       	std	Z+2, r24	; 0x02
					
					/*	MENU CHOICE		*/
					if(PTR_ACESS->AccessHouse == PASS){
    1be6:	e0 91 77 01 	lds	r30, 0x0177
    1bea:	f0 91 78 01 	lds	r31, 0x0178
    1bee:	82 81       	ldd	r24, Z+2	; 0x02
    1bf0:	81 30       	cpi	r24, 0x01	; 1
    1bf2:	09 f4       	brne	.+2      	; 0x1bf6 <main+0x244>
    1bf4:	84 cf       	rjmp	.-248    	; 0x1afe <main+0x14c>
						goto acess ;
					}
					/*	LOGOUT HOUSE CHOICE	*/
					else if(PTR_ACESS->AccessHouse == FAIL){
    1bf6:	88 23       	and	r24, r24
    1bf8:	09 f0       	breq	.+2      	; 0x1bfc <main+0x24a>
    1bfa:	03 cf       	rjmp	.-506    	; 0x1a02 <main+0x50>
						SPI_vTransf(LOGOUT_SLAVE);
    1bfc:	89 e3       	ldi	r24, 0x39	; 57
    1bfe:	0e 94 68 0f 	call	0x1ed0	; 0x1ed0 <SPI_vTransf>
    1c02:	8f e0       	ldi	r24, 0x0F	; 15
    1c04:	97 e2       	ldi	r25, 0x27	; 39
    1c06:	01 97       	sbiw	r24, 0x01	; 1
    1c08:	f1 f7       	brne	.-4      	; 0x1c06 <main+0x254>
    1c0a:	00 c0       	rjmp	.+0      	; 0x1c0c <main+0x25a>
    1c0c:	00 00       	nop
    1c0e:	fb ce       	rjmp	.-522    	; 0x1a06 <main+0x54>
					
					break;
					
					case TV:
					/*		TV CODE		*/
					SPI_vTransf(TV);
    1c10:	83 e3       	ldi	r24, 0x33	; 51
    1c12:	0e 94 68 0f 	call	0x1ed0	; 0x1ed0 <SPI_vTransf>
					
					/*	ASKING IS TV ON OR OFF	*/
					Tv_menu:							
					PTR_ACESS->AccessTV = TV_ON_OFF();
    1c16:	00 91 77 01 	lds	r16, 0x0177
    1c1a:	10 91 78 01 	lds	r17, 0x0178
    1c1e:	0e 94 62 07 	call	0xec4	; 0xec4 <TV_ON_OFF>
    1c22:	f8 01       	movw	r30, r16
    1c24:	83 83       	std	Z+3, r24	; 0x03
					
					/*	MENU ACCESS		*/
					if(PTR_ACESS->AccessTV == MENU){
    1c26:	e0 91 77 01 	lds	r30, 0x0177
    1c2a:	f0 91 78 01 	lds	r31, 0x0178
    1c2e:	83 81       	ldd	r24, Z+3	; 0x03
    1c30:	8d 33       	cpi	r24, 0x3D	; 61
    1c32:	09 f4       	brne	.+2      	; 0x1c36 <main+0x284>
    1c34:	64 cf       	rjmp	.-312    	; 0x1afe <main+0x14c>
						goto acess ;
					}
					
					/*	OPEN TV		*/
					else if(PTR_ACESS->AccessTV == ON){
    1c36:	81 33       	cpi	r24, 0x31	; 49
    1c38:	f9 f4       	brne	.+62     	; 0x1c78 <main+0x2c6>
						SPI_vTransf(ON);
    1c3a:	0e 94 68 0f 	call	0x1ed0	; 0x1ed0 <SPI_vTransf>
						
						/*	TV ON DISPLAY	*/
						PTR_ACESS->AccessTV = TV_Access();
    1c3e:	00 91 77 01 	lds	r16, 0x0177
    1c42:	10 91 78 01 	lds	r17, 0x0178
    1c46:	0e 94 95 07 	call	0xf2a	; 0xf2a <TV_Access>
    1c4a:	f8 01       	movw	r30, r16
    1c4c:	83 83       	std	Z+3, r24	; 0x03
						
						/*	BACK TO MENU	*/
						if(PTR_ACESS->AccessTV == PASS){
    1c4e:	e0 91 77 01 	lds	r30, 0x0177
    1c52:	f0 91 78 01 	lds	r31, 0x0178
    1c56:	83 81       	ldd	r24, Z+3	; 0x03
    1c58:	81 30       	cpi	r24, 0x01	; 1
    1c5a:	09 f4       	brne	.+2      	; 0x1c5e <main+0x2ac>
    1c5c:	50 cf       	rjmp	.-352    	; 0x1afe <main+0x14c>
							goto acess ;
						}
						
						/* LOGOUT FROM THE HOUSE	*/
						else if(PTR_ACESS->AccessTV == FAIL){
    1c5e:	88 23       	and	r24, r24
    1c60:	09 f0       	breq	.+2      	; 0x1c64 <main+0x2b2>
    1c62:	cf ce       	rjmp	.-610    	; 0x1a02 <main+0x50>
							SPI_vTransf(LOGOUT_SLAVE);
    1c64:	89 e3       	ldi	r24, 0x39	; 57
    1c66:	0e 94 68 0f 	call	0x1ed0	; 0x1ed0 <SPI_vTransf>
    1c6a:	8f e0       	ldi	r24, 0x0F	; 15
    1c6c:	97 e2       	ldi	r25, 0x27	; 39
    1c6e:	01 97       	sbiw	r24, 0x01	; 1
    1c70:	f1 f7       	brne	.-4      	; 0x1c6e <main+0x2bc>
    1c72:	00 c0       	rjmp	.+0      	; 0x1c74 <main+0x2c2>
    1c74:	00 00       	nop
    1c76:	c7 ce       	rjmp	.-626    	; 0x1a06 <main+0x54>
							goto Logout ;
						}
					}
					
					/*	CLOSE TV	*/
					else if(PTR_ACESS->AccessTV == OFF){
    1c78:	80 33       	cpi	r24, 0x30	; 48
    1c7a:	09 f0       	breq	.+2      	; 0x1c7e <main+0x2cc>
    1c7c:	c2 ce       	rjmp	.-636    	; 0x1a02 <main+0x50>
						SPI_vTransf(OFF);
    1c7e:	0e 94 68 0f 	call	0x1ed0	; 0x1ed0 <SPI_vTransf>
						
						goto Tv_menu ;
    1c82:	c9 cf       	rjmp	.-110    	; 0x1c16 <main+0x264>
					break;
					
					
					case AC:
					/*		AIRCONDITION CODE		*/
					SPI_vTransf(AC);
    1c84:	84 e3       	ldi	r24, 0x34	; 52
    1c86:	0e 94 68 0f 	call	0x1ed0	; 0x1ed0 <SPI_vTransf>
					
					/*	DISPLAY AIRCONDTION FEATURES	*/
					AirCond_menu:					
					PTR_ACESS->AccessAirCond = AC_On();
    1c8a:	00 91 77 01 	lds	r16, 0x0177
    1c8e:	10 91 78 01 	lds	r17, 0x0178
    1c92:	0e 94 5a 08 	call	0x10b4	; 0x10b4 <AC_On>
    1c96:	f8 01       	movw	r30, r16
    1c98:	84 83       	std	Z+4, r24	; 0x04
					
					/*	MENU ACCESS		*/
					if(PTR_ACESS->AccessAirCond == MENU){
    1c9a:	e0 91 77 01 	lds	r30, 0x0177
    1c9e:	f0 91 78 01 	lds	r31, 0x0178
    1ca2:	84 81       	ldd	r24, Z+4	; 0x04
    1ca4:	8d 33       	cpi	r24, 0x3D	; 61
    1ca6:	09 f4       	brne	.+2      	; 0x1caa <main+0x2f8>
    1ca8:	2a cf       	rjmp	.-428    	; 0x1afe <main+0x14c>
						goto acess ;
					}
					
					/*	OPEN AIR_COND		*/
					else if(PTR_ACESS->AccessAirCond == ON){
    1caa:	81 33       	cpi	r24, 0x31	; 49
    1cac:	99 f5       	brne	.+102    	; 0x1d14 <main+0x362>
						SPI_vTransf(ON);
    1cae:	0e 94 68 0f 	call	0x1ed0	; 0x1ed0 <SPI_vTransf>
						
						/*	GETTING TEMPERATURE DEGREE FROM USER	*/
						PTR_ACESS->AirCond_Degree = AC_Degree(AC_TEMP_Degree());
    1cb2:	00 91 77 01 	lds	r16, 0x0177
    1cb6:	10 91 78 01 	lds	r17, 0x0178
    1cba:	0e 94 30 09 	call	0x1260	; 0x1260 <AC_TEMP_Degree>
    1cbe:	0e 94 97 09 	call	0x132e	; 0x132e <AC_Degree>
    1cc2:	f8 01       	movw	r30, r16
    1cc4:	85 83       	std	Z+5, r24	; 0x05
						
						/*	SEND IT TO THE SLAVE	*/
						SPI_vTransf(PTR_ACESS->AirCond_Degree);
    1cc6:	e0 91 77 01 	lds	r30, 0x0177
    1cca:	f0 91 78 01 	lds	r31, 0x0178
    1cce:	85 81       	ldd	r24, Z+5	; 0x05
    1cd0:	0e 94 68 0f 	call	0x1ed0	; 0x1ed0 <SPI_vTransf>
						
						/*	ACCESSING AIRCONDITION DISPLAY	*/
						PTR_ACESS->AccessAirCond = AC_Access();
    1cd4:	00 91 77 01 	lds	r16, 0x0177
    1cd8:	10 91 78 01 	lds	r17, 0x0178
    1cdc:	0e 94 8d 08 	call	0x111a	; 0x111a <AC_Access>
    1ce0:	f8 01       	movw	r30, r16
    1ce2:	84 83       	std	Z+4, r24	; 0x04
						
						/*	BACK TO MENU	*/
						if(PTR_ACESS->AccessAirCond == PASS){
    1ce4:	e0 91 77 01 	lds	r30, 0x0177
    1ce8:	f0 91 78 01 	lds	r31, 0x0178
    1cec:	84 81       	ldd	r24, Z+4	; 0x04
    1cee:	81 30       	cpi	r24, 0x01	; 1
    1cf0:	21 f4       	brne	.+8      	; 0x1cfa <main+0x348>
							SPI_vTransf(MENU);
    1cf2:	8d e3       	ldi	r24, 0x3D	; 61
    1cf4:	0e 94 68 0f 	call	0x1ed0	; 0x1ed0 <SPI_vTransf>
							goto acess ;
    1cf8:	02 cf       	rjmp	.-508    	; 0x1afe <main+0x14c>
						}
						
						/* LOGOUT FROM THE HOUSE	*/
						else if(PTR_ACESS->AccessAirCond == FAIL){
    1cfa:	88 23       	and	r24, r24
    1cfc:	09 f0       	breq	.+2      	; 0x1d00 <main+0x34e>
    1cfe:	81 ce       	rjmp	.-766    	; 0x1a02 <main+0x50>
							SPI_vTransf(LOGOUT_SLAVE);
    1d00:	89 e3       	ldi	r24, 0x39	; 57
    1d02:	0e 94 68 0f 	call	0x1ed0	; 0x1ed0 <SPI_vTransf>
    1d06:	8f e0       	ldi	r24, 0x0F	; 15
    1d08:	97 e2       	ldi	r25, 0x27	; 39
    1d0a:	01 97       	sbiw	r24, 0x01	; 1
    1d0c:	f1 f7       	brne	.-4      	; 0x1d0a <main+0x358>
    1d0e:	00 c0       	rjmp	.+0      	; 0x1d10 <main+0x35e>
    1d10:	00 00       	nop
    1d12:	79 ce       	rjmp	.-782    	; 0x1a06 <main+0x54>
							goto Logout ;
						}
					}
					
					/*	CLOSE AIR_COND	*/
					else if(PTR_ACESS->AccessAirCond == OFF){
    1d14:	80 33       	cpi	r24, 0x30	; 48
    1d16:	09 f0       	breq	.+2      	; 0x1d1a <main+0x368>
    1d18:	74 ce       	rjmp	.-792    	; 0x1a02 <main+0x50>
						SPI_vTransf(OFF);
    1d1a:	0e 94 68 0f 	call	0x1ed0	; 0x1ed0 <SPI_vTransf>
						
						goto AirCond_menu ;
    1d1e:	b5 cf       	rjmp	.-150    	; 0x1c8a <main+0x2d8>





else if(PTR_ACESS->Admin_or_Guest == Guest){
    1d20:	80 33       	cpi	r24, 0x30	; 48
    1d22:	09 f0       	breq	.+2      	; 0x1d26 <main+0x374>
    1d24:	6e ce       	rjmp	.-804    	; 0x1a02 <main+0x50>
	
	/*	CHECK THE ENTERED PASSWORD	*/
	if(Chk_Guest_Pass() == PASS){
    1d26:	0e 94 ac 09 	call	0x1358	; 0x1358 <Chk_Guest_Pass>
    1d2a:	81 30       	cpi	r24, 0x01	; 1
    1d2c:	09 f0       	breq	.+2      	; 0x1d30 <main+0x37e>
    1d2e:	6b ce       	rjmp	.-810    	; 0x1a06 <main+0x54>
		
		/* ACCESSING THE HOUSE AS GUEST	HAVE ACCESS TO THE ROOMS ONLY	*/
		
		SET_BIT( LED_PORT , Login_led);	/* LOG IN LED ON */
    1d30:	a8 9a       	sbi	0x15, 0	; 21
		CLR_BIT( LED_PORT , Logout_led);	/* LOG OUT LED OFF */
    1d32:	a9 98       	cbi	0x15, 1	; 21
		
		acess2:
		/* GETTING FIRST CHOICE FROM USER	*/
		PTR_ACESS->FirstAcessRead = Access_Display1();
    1d34:	00 91 77 01 	lds	r16, 0x0177
    1d38:	10 91 78 01 	lds	r17, 0x0178
    1d3c:	0e 94 9c 05 	call	0xb38	; 0xb38 <Access_Display1>
    1d40:	f8 01       	movw	r30, r16
    1d42:	80 83       	st	Z, r24
		
		/*	ROOM1 and ROOM2	*/
		
		switch(PTR_ACESS->FirstAcessRead){
    1d44:	e0 91 77 01 	lds	r30, 0x0177
    1d48:	f0 91 78 01 	lds	r31, 0x0178
    1d4c:	80 81       	ld	r24, Z
    1d4e:	81 33       	cpi	r24, 0x31	; 49
    1d50:	29 f1       	breq	.+74     	; 0x1d9c <main+0x3ea>
    1d52:	82 33       	cpi	r24, 0x32	; 50
    1d54:	09 f4       	brne	.+2      	; 0x1d58 <main+0x3a6>
    1d56:	43 c0       	rjmp	.+134    	; 0x1dde <main+0x42c>
    1d58:	80 33       	cpi	r24, 0x30	; 48
    1d5a:	09 f0       	breq	.+2      	; 0x1d5e <main+0x3ac>
    1d5c:	52 ce       	rjmp	.-860    	; 0x1a02 <main+0x50>
			case ROOM1:
			/*		SENDING ROOM1 TO SLAVE	*/
			SPI_vTransf(ROOM1);
    1d5e:	0e 94 68 0f 	call	0x1ed0	; 0x1ed0 <SPI_vTransf>
			
			/* ACCESSING ROOM 1 DISPLAY	*/
			PTR_ACESS->AccessHouse = Rooms_Access_Display(ROOM1);
    1d62:	00 91 77 01 	lds	r16, 0x0177
    1d66:	10 91 78 01 	lds	r17, 0x0178
    1d6a:	80 e3       	ldi	r24, 0x30	; 48
    1d6c:	0e 94 7a 06 	call	0xcf4	; 0xcf4 <Rooms_Access_Display>
    1d70:	f8 01       	movw	r30, r16
    1d72:	82 83       	std	Z+2, r24	; 0x02
			
			/*	MENU CHOICE		*/
			if(PTR_ACESS->AccessHouse == PASS){
    1d74:	e0 91 77 01 	lds	r30, 0x0177
    1d78:	f0 91 78 01 	lds	r31, 0x0178
    1d7c:	82 81       	ldd	r24, Z+2	; 0x02
    1d7e:	81 30       	cpi	r24, 0x01	; 1
    1d80:	c9 f2       	breq	.-78     	; 0x1d34 <main+0x382>
				goto acess2 ;
			}
			/*	LOGOUT HOUSE CHOICE	*/
			else if(PTR_ACESS->AccessHouse == FAIL){
    1d82:	88 23       	and	r24, r24
    1d84:	09 f0       	breq	.+2      	; 0x1d88 <main+0x3d6>
    1d86:	3d ce       	rjmp	.-902    	; 0x1a02 <main+0x50>
				SPI_vTransf(LOGOUT_SLAVE);
    1d88:	89 e3       	ldi	r24, 0x39	; 57
    1d8a:	0e 94 68 0f 	call	0x1ed0	; 0x1ed0 <SPI_vTransf>
    1d8e:	8f e0       	ldi	r24, 0x0F	; 15
    1d90:	97 e2       	ldi	r25, 0x27	; 39
    1d92:	01 97       	sbiw	r24, 0x01	; 1
    1d94:	f1 f7       	brne	.-4      	; 0x1d92 <main+0x3e0>
    1d96:	00 c0       	rjmp	.+0      	; 0x1d98 <main+0x3e6>
    1d98:	00 00       	nop
    1d9a:	35 ce       	rjmp	.-918    	; 0x1a06 <main+0x54>
			}
			break;
			
			case ROOM2:
			/*		SENDING ROOM2 TO SLAVE		*/
			SPI_vTransf(ROOM2);
    1d9c:	81 e3       	ldi	r24, 0x31	; 49
    1d9e:	0e 94 68 0f 	call	0x1ed0	; 0x1ed0 <SPI_vTransf>
			
			/* ACCESSING ROOM 2 DISPLAY	*/
			PTR_ACESS->AccessHouse = Rooms_Access_Display(ROOM2);
    1da2:	00 91 77 01 	lds	r16, 0x0177
    1da6:	10 91 78 01 	lds	r17, 0x0178
    1daa:	81 e3       	ldi	r24, 0x31	; 49
    1dac:	0e 94 7a 06 	call	0xcf4	; 0xcf4 <Rooms_Access_Display>
    1db0:	f8 01       	movw	r30, r16
    1db2:	82 83       	std	Z+2, r24	; 0x02
			
			/*	MENU CHOICE		*/
			if(PTR_ACESS->AccessHouse == PASS){
    1db4:	e0 91 77 01 	lds	r30, 0x0177
    1db8:	f0 91 78 01 	lds	r31, 0x0178
    1dbc:	82 81       	ldd	r24, Z+2	; 0x02
    1dbe:	81 30       	cpi	r24, 0x01	; 1
    1dc0:	09 f4       	brne	.+2      	; 0x1dc4 <main+0x412>
    1dc2:	b8 cf       	rjmp	.-144    	; 0x1d34 <main+0x382>
				goto acess2 ;
			}
			/*	LOGOUT HOUSE CHOICE	*/
			else if(PTR_ACESS->AccessHouse == FAIL){
    1dc4:	88 23       	and	r24, r24
    1dc6:	09 f0       	breq	.+2      	; 0x1dca <main+0x418>
    1dc8:	1c ce       	rjmp	.-968    	; 0x1a02 <main+0x50>
				SPI_vTransf(LOGOUT_SLAVE);
    1dca:	89 e3       	ldi	r24, 0x39	; 57
    1dcc:	0e 94 68 0f 	call	0x1ed0	; 0x1ed0 <SPI_vTransf>
    1dd0:	8f e0       	ldi	r24, 0x0F	; 15
    1dd2:	97 e2       	ldi	r25, 0x27	; 39
    1dd4:	01 97       	sbiw	r24, 0x01	; 1
    1dd6:	f1 f7       	brne	.-4      	; 0x1dd4 <main+0x422>
    1dd8:	00 c0       	rjmp	.+0      	; 0x1dda <main+0x428>
    1dda:	00 00       	nop
    1ddc:	14 ce       	rjmp	.-984    	; 0x1a06 <main+0x54>
			
			case ROOM3:
			
			
			/*		SENDING ROOM3 TO SLAVE		*/
			SPI_vTransf(ROOM3);
    1dde:	82 e3       	ldi	r24, 0x32	; 50
    1de0:	0e 94 68 0f 	call	0x1ed0	; 0x1ed0 <SPI_vTransf>
			
			/* ACCESSING ROOM 3 DISPLAY	*/
			PTR_ACESS->AccessHouse = Rooms_Access_Display(ROOM3);
    1de4:	00 91 77 01 	lds	r16, 0x0177
    1de8:	10 91 78 01 	lds	r17, 0x0178
    1dec:	82 e3       	ldi	r24, 0x32	; 50
    1dee:	0e 94 7a 06 	call	0xcf4	; 0xcf4 <Rooms_Access_Display>
    1df2:	f8 01       	movw	r30, r16
    1df4:	82 83       	std	Z+2, r24	; 0x02
			
			/*	MENU CHOICE		*/
			if(PTR_ACESS->AccessHouse == PASS){
    1df6:	e0 91 77 01 	lds	r30, 0x0177
    1dfa:	f0 91 78 01 	lds	r31, 0x0178
    1dfe:	82 81       	ldd	r24, Z+2	; 0x02
    1e00:	81 30       	cpi	r24, 0x01	; 1
    1e02:	09 f4       	brne	.+2      	; 0x1e06 <main+0x454>
    1e04:	97 cf       	rjmp	.-210    	; 0x1d34 <main+0x382>
				goto acess2 ;
			}
			/*	LOGOUT HOUSE CHOICE	*/
			else if(PTR_ACESS->AccessHouse == FAIL){
    1e06:	88 23       	and	r24, r24
    1e08:	09 f0       	breq	.+2      	; 0x1e0c <main+0x45a>
    1e0a:	fb cd       	rjmp	.-1034   	; 0x1a02 <main+0x50>
				SPI_vTransf(LOGOUT_SLAVE);
    1e0c:	89 e3       	ldi	r24, 0x39	; 57
    1e0e:	0e 94 68 0f 	call	0x1ed0	; 0x1ed0 <SPI_vTransf>
    1e12:	8f e0       	ldi	r24, 0x0F	; 15
    1e14:	97 e2       	ldi	r25, 0x27	; 39
    1e16:	01 97       	sbiw	r24, 0x01	; 1
    1e18:	f1 f7       	brne	.-4      	; 0x1e16 <main+0x464>
    1e1a:	00 c0       	rjmp	.+0      	; 0x1e1c <main+0x46a>
    1e1c:	00 00       	nop
    1e1e:	f3 cd       	rjmp	.-1050   	; 0x1a06 <main+0x54>

00001e20 <__vector_10>:
}
    }
}

/* NOTE THAT TIMER0 TICK = 10ms		*/
ISR(TIMER0_COMP_vect){
    1e20:	1f 92       	push	r1
    1e22:	0f 92       	push	r0
    1e24:	0f b6       	in	r0, 0x3f	; 63
    1e26:	0f 92       	push	r0
    1e28:	11 24       	eor	r1, r1
    1e2a:	8f 93       	push	r24
    1e2c:	9f 93       	push	r25
    1e2e:	ef 93       	push	r30
    1e30:	ff 93       	push	r31
	PTR_COUNT ->keypad_count += 1;
    1e32:	e0 91 79 01 	lds	r30, 0x0179
    1e36:	f0 91 7a 01 	lds	r31, 0x017A
    1e3a:	80 81       	ld	r24, Z
    1e3c:	8f 5f       	subi	r24, 0xFF	; 255
    1e3e:	80 83       	st	Z, r24
	PTR_COUNT->pw_count += 1;
    1e40:	e0 91 79 01 	lds	r30, 0x0179
    1e44:	f0 91 7a 01 	lds	r31, 0x017A
    1e48:	81 81       	ldd	r24, Z+1	; 0x01
    1e4a:	92 81       	ldd	r25, Z+2	; 0x02
    1e4c:	01 96       	adiw	r24, 0x01	; 1
    1e4e:	92 83       	std	Z+2, r25	; 0x02
    1e50:	81 83       	std	Z+1, r24	; 0x01
	
}
    1e52:	ff 91       	pop	r31
    1e54:	ef 91       	pop	r30
    1e56:	9f 91       	pop	r25
    1e58:	8f 91       	pop	r24
    1e5a:	0f 90       	pop	r0
    1e5c:	0f be       	out	0x3f, r0	; 63
    1e5e:	0f 90       	pop	r0
    1e60:	1f 90       	pop	r1
    1e62:	18 95       	reti

00001e64 <__vector_7>:

/*	NOTE THAT TIMER1 TICK = 100ms	*/
ISR(TIMER1_COMPA_vect){
    1e64:	1f 92       	push	r1
    1e66:	0f 92       	push	r0
    1e68:	0f b6       	in	r0, 0x3f	; 63
    1e6a:	0f 92       	push	r0
    1e6c:	11 24       	eor	r1, r1
    1e6e:	8f 93       	push	r24
    1e70:	9f 93       	push	r25
    1e72:	ef 93       	push	r30
    1e74:	ff 93       	push	r31
	PTR_COUNT->BlockCount1 +=1 ;
    1e76:	e0 91 79 01 	lds	r30, 0x0179
    1e7a:	f0 91 7a 01 	lds	r31, 0x017A
    1e7e:	87 81       	ldd	r24, Z+7	; 0x07
    1e80:	90 85       	ldd	r25, Z+8	; 0x08
    1e82:	01 96       	adiw	r24, 0x01	; 1
    1e84:	90 87       	std	Z+8, r25	; 0x08
    1e86:	87 83       	std	Z+7, r24	; 0x07
}
    1e88:	ff 91       	pop	r31
    1e8a:	ef 91       	pop	r30
    1e8c:	9f 91       	pop	r25
    1e8e:	8f 91       	pop	r24
    1e90:	0f 90       	pop	r0
    1e92:	0f be       	out	0x3f, r0	; 63
    1e94:	0f 90       	pop	r0
    1e96:	1f 90       	pop	r1
    1e98:	18 95       	reti

00001e9a <__vector_12>:


ISR(SPI_STC_vect){
    1e9a:	1f 92       	push	r1
    1e9c:	0f 92       	push	r0
    1e9e:	0f b6       	in	r0, 0x3f	; 63
    1ea0:	0f 92       	push	r0
    1ea2:	11 24       	eor	r1, r1
	SET_BIT(PORTB , ss);
    1ea4:	c4 9a       	sbi	0x18, 4	; 24
    1ea6:	0f 90       	pop	r0
    1ea8:	0f be       	out	0x3f, r0	; 63
    1eaa:	0f 90       	pop	r0
    1eac:	1f 90       	pop	r1
    1eae:	18 95       	reti

00001eb0 <SPI_vINTMASTRE>:
//#include "SPI.h"
#include "COMMON_CONFIG.h"

	void SPI_vINTMASTRE()
{
		SET_BIT(SPCR,SPR0);
    1eb0:	68 9a       	sbi	0x0d, 0	; 13
		SET_BIT(SPCR,MSTR);
    1eb2:	6c 9a       	sbi	0x0d, 4	; 13
	
		SET_BIT(DDRB,ss);
    1eb4:	bc 9a       	sbi	0x17, 4	; 23
		SET_BIT(DDRB,mosi);
    1eb6:	bd 9a       	sbi	0x17, 5	; 23
		SET_BIT(DDRB,sck);
    1eb8:	bf 9a       	sbi	0x17, 7	; 23
		SET_BIT(SPCR,CPOL);
    1eba:	6b 9a       	sbi	0x0d, 3	; 13
		SET_BIT(SPCR,CPHA);
    1ebc:	6a 9a       	sbi	0x0d, 2	; 13
		SET_BIT(PORTB,ss);
    1ebe:	c4 9a       	sbi	0x18, 4	; 24
		SET_BIT(SPCR,SPE);
    1ec0:	6e 9a       	sbi	0x0d, 6	; 13
}
    1ec2:	08 95       	ret

00001ec4 <SPI_vINTSlave>:


	void SPI_vINTSlave()
{
		CLR_BIT(SPCR,MSTR);
    1ec4:	6c 98       	cbi	0x0d, 4	; 13
		SET_BIT(DDRB,miso);
    1ec6:	be 9a       	sbi	0x17, 6	; 23
		SET_BIT(SPCR,CPOL);
    1ec8:	6b 9a       	sbi	0x0d, 3	; 13
		SET_BIT(SPCR,CPHA);
    1eca:	6a 9a       	sbi	0x0d, 2	; 13
		SET_BIT(SPCR,SPE);
    1ecc:	6e 9a       	sbi	0x0d, 6	; 13
		
}
    1ece:	08 95       	ret

00001ed0 <SPI_vTransf>:


	void SPI_vTransf(char data)
{
		CLR_BIT(PORTB,ss);
    1ed0:	c4 98       	cbi	0x18, 4	; 24
	
		SPDR = data;
    1ed2:	8f b9       	out	0x0f, r24	; 15
	
		while(!(READ_BIT_SET(SPSR,SPIF)))
    1ed4:	77 9b       	sbis	0x0e, 7	; 14
    1ed6:	fe cf       	rjmp	.-4      	; 0x1ed4 <SPI_vTransf+0x4>
	
		{
			//wait
		}
	
		SET_BIT(PORTB,ss);	
    1ed8:	c4 9a       	sbi	0x18, 4	; 24
}
    1eda:	08 95       	ret

00001edc <SPI_u8Recive>:


	char SPI_u8Recive()
{
		while(!(READ_BIT_SET(SPSR,SPIF)))
    1edc:	77 9b       	sbis	0x0e, 7	; 14
    1ede:	fe cf       	rjmp	.-4      	; 0x1edc <SPI_u8Recive>
	
		{
			//wait
		}
		
		return SPDR;
    1ee0:	8f b1       	in	r24, 0x0f	; 15
	
    1ee2:	08 95       	ret

00001ee4 <TIMER_vInt>:

	void TIMER_vInt()
{
	
		/*choose ocr0*/
		OCR0 =78;
    1ee4:	8e e4       	ldi	r24, 0x4E	; 78
    1ee6:	8c bf       	out	0x3c, r24	; 60
		
		/*choose mode*/
		CLR_BIT (TCCR0,WGM00);
    1ee8:	83 b7       	in	r24, 0x33	; 51
    1eea:	8f 7b       	andi	r24, 0xBF	; 191
    1eec:	83 bf       	out	0x33, r24	; 51
		SET_BIT (TCCR0,WGM01);
    1eee:	83 b7       	in	r24, 0x33	; 51
    1ef0:	88 60       	ori	r24, 0x08	; 8
    1ef2:	83 bf       	out	0x33, r24	; 51
	
		/*choose prescale clock put it at the end*/
		SET_BIT(TCCR0,CS00);
    1ef4:	83 b7       	in	r24, 0x33	; 51
    1ef6:	81 60       	ori	r24, 0x01	; 1
    1ef8:	83 bf       	out	0x33, r24	; 51
		CLR_BIT (TCCR0,CS01);
    1efa:	83 b7       	in	r24, 0x33	; 51
    1efc:	8d 7f       	andi	r24, 0xFD	; 253
    1efe:	83 bf       	out	0x33, r24	; 51
		SET_BIT(TCCR0,CS02);
    1f00:	83 b7       	in	r24, 0x33	; 51
    1f02:	84 60       	ori	r24, 0x04	; 4
    1f04:	83 bf       	out	0x33, r24	; 51
	
		
	
		/*globel interupt*/
		sei ();
    1f06:	78 94       	sei
	
		/*set timer conter*/
		SET_BIT(TIMSK,OCIE0);
    1f08:	89 b7       	in	r24, 0x39	; 57
    1f0a:	82 60       	ori	r24, 0x02	; 2
    1f0c:	89 bf       	out	0x39, r24	; 57
	
}
    1f0e:	08 95       	ret

00001f10 <Timer1_vInit_16bit>:



void Timer1_vInit_16bit(void){
	
	cli();	/* disableing interrupts	*/
    1f10:	f8 94       	cli
	
	/* putting number to where the timer return to zero ( TICK = 100 ms ) */
	OCR1A = 781;
    1f12:	8d e0       	ldi	r24, 0x0D	; 13
    1f14:	93 e0       	ldi	r25, 0x03	; 3
    1f16:	9b bd       	out	0x2b, r25	; 43
    1f18:	8a bd       	out	0x2a, r24	; 42
	
	sei(); /* global I bit to enable interrupt */
    1f1a:	78 94       	sei
	
	/* choosing which mode to apply "CTC Mode" */
	CLR_BIT(TCCR1A,WGM10);
    1f1c:	8f b5       	in	r24, 0x2f	; 47
    1f1e:	8e 7f       	andi	r24, 0xFE	; 254
    1f20:	8f bd       	out	0x2f, r24	; 47
	CLR_BIT(TCCR1A,WGM11);
    1f22:	8f b5       	in	r24, 0x2f	; 47
    1f24:	8d 7f       	andi	r24, 0xFD	; 253
    1f26:	8f bd       	out	0x2f, r24	; 47
	
	SET_BIT(TCCR1B , WGM12);
    1f28:	8e b5       	in	r24, 0x2e	; 46
    1f2a:	88 60       	ori	r24, 0x08	; 8
    1f2c:	8e bd       	out	0x2e, r24	; 46
	CLR_BIT(TCCR1B , WGM13);
    1f2e:	8e b5       	in	r24, 0x2e	; 46
    1f30:	8f 7e       	andi	r24, 0xEF	; 239
    1f32:	8e bd       	out	0x2e, r24	; 46
	
	/* choosing which Prescaler "1024" factor */
	SET_BIT(TCCR1B,CS12);
    1f34:	8e b5       	in	r24, 0x2e	; 46
    1f36:	84 60       	ori	r24, 0x04	; 4
    1f38:	8e bd       	out	0x2e, r24	; 46
	SET_BIT(TCCR1B,CS10);
    1f3a:	8e b5       	in	r24, 0x2e	; 46
    1f3c:	81 60       	ori	r24, 0x01	; 1
    1f3e:	8e bd       	out	0x2e, r24	; 46
	CLR_BIT(TCCR1B,CS11);
    1f40:	8e b5       	in	r24, 0x2e	; 46
    1f42:	8d 7f       	andi	r24, 0xFD	; 253
    1f44:	8e bd       	out	0x2e, r24	; 46
	
	
	
	
	SET_BIT(TIMSK,OCIE1A);  /* Enable Timer Compare match Interrupt */
    1f46:	89 b7       	in	r24, 0x39	; 57
    1f48:	80 61       	ori	r24, 0x10	; 16
    1f4a:	89 bf       	out	0x39, r24	; 57
	
    1f4c:	08 95       	ret

00001f4e <TimerPWM_vint>:
//#include "TimerPWM.h"
#include "COMMON_CONFIG.h"

	void TimerPWM_vint()
{
		OCR0 =1; 
    1f4e:	81 e0       	ldi	r24, 0x01	; 1
    1f50:	8c bf       	out	0x3c, r24	; 60
		
		/*choose mode*/
		SET_BIT(TCCR0,WGM01);
    1f52:	83 b7       	in	r24, 0x33	; 51
    1f54:	88 60       	ori	r24, 0x08	; 8
    1f56:	83 bf       	out	0x33, r24	; 51
		SET_BIT(TCCR0,WGM00);
    1f58:	83 b7       	in	r24, 0x33	; 51
    1f5a:	80 64       	ori	r24, 0x40	; 64
    1f5c:	83 bf       	out	0x33, r24	; 51
		
		/*sent inverter mode*/
		SET_BIT(TCCR0,COM01);
    1f5e:	83 b7       	in	r24, 0x33	; 51
    1f60:	80 62       	ori	r24, 0x20	; 32
    1f62:	83 bf       	out	0x33, r24	; 51
		CLR_BIT(TCCR0,COM00);
    1f64:	83 b7       	in	r24, 0x33	; 51
    1f66:	8f 7e       	andi	r24, 0xEF	; 239
    1f68:	83 bf       	out	0x33, r24	; 51
		 
		/*outpou for PWM wave*/
		SET_BIT(DDRB,PIN);
    1f6a:	bb 9a       	sbi	0x17, 3	; 23
	 
		/*choose prescale clock put it at the end*/
		SET_BIT(TCCR0,CS00);
    1f6c:	83 b7       	in	r24, 0x33	; 51
    1f6e:	81 60       	ori	r24, 0x01	; 1
    1f70:	83 bf       	out	0x33, r24	; 51
		CLR_BIT (TCCR0,CS01);
    1f72:	83 b7       	in	r24, 0x33	; 51
    1f74:	8d 7f       	andi	r24, 0xFD	; 253
    1f76:	83 bf       	out	0x33, r24	; 51
		SET_BIT(TCCR0,CS02);
    1f78:	83 b7       	in	r24, 0x33	; 51
    1f7a:	84 60       	ori	r24, 0x04	; 4
    1f7c:	83 bf       	out	0x33, r24	; 51
	 
		/*globel interupt*/
		sei ();
    1f7e:	78 94       	sei
		/*set timer conter*/
		SET_BIT(TIMSK,TOIE0);
    1f80:	89 b7       	in	r24, 0x39	; 57
    1f82:	81 60       	ori	r24, 0x01	; 1
    1f84:	89 bf       	out	0x39, r24	; 57
	 	
}
    1f86:	08 95       	ret

00001f88 <TimerPWM_SetDC>:


	void TimerPWM_SetDC(float val)
{
		OCR0 =val*256;
    1f88:	20 e0       	ldi	r18, 0x00	; 0
    1f8a:	30 e0       	ldi	r19, 0x00	; 0
    1f8c:	40 e8       	ldi	r20, 0x80	; 128
    1f8e:	53 e4       	ldi	r21, 0x43	; 67
    1f90:	0e 94 c1 10 	call	0x2182	; 0x2182 <__mulsf3>
    1f94:	0e 94 0b 10 	call	0x2016	; 0x2016 <__fixunssfsi>
    1f98:	6c bf       	out	0x3c, r22	; 60
}
    1f9a:	08 95       	ret

00001f9c <UART_vInit>:
//#include <avr/interrupt.h>
//#include <util/delay.h>
#include "COMMON_CONFIG.h"

	void UART_vInit(long baud)
{
    1f9c:	dc 01       	movw	r26, r24
    1f9e:	cb 01       	movw	r24, r22
		/*1 - Choose baud rate that will be used by sender and receiver by writing to UBRRL/UBRRH*/
		short rate =(F_OSC/(16*baud));
    1fa0:	88 0f       	add	r24, r24
    1fa2:	99 1f       	adc	r25, r25
    1fa4:	aa 1f       	adc	r26, r26
    1fa6:	bb 1f       	adc	r27, r27
    1fa8:	88 0f       	add	r24, r24
    1faa:	99 1f       	adc	r25, r25
    1fac:	aa 1f       	adc	r26, r26
    1fae:	bb 1f       	adc	r27, r27
    1fb0:	9c 01       	movw	r18, r24
    1fb2:	ad 01       	movw	r20, r26
    1fb4:	22 0f       	add	r18, r18
    1fb6:	33 1f       	adc	r19, r19
    1fb8:	44 1f       	adc	r20, r20
    1fba:	55 1f       	adc	r21, r21
    1fbc:	22 0f       	add	r18, r18
    1fbe:	33 1f       	adc	r19, r19
    1fc0:	44 1f       	adc	r20, r20
    1fc2:	55 1f       	adc	r21, r21
    1fc4:	60 e0       	ldi	r22, 0x00	; 0
    1fc6:	72 e1       	ldi	r23, 0x12	; 18
    1fc8:	8a e7       	ldi	r24, 0x7A	; 122
    1fca:	90 e0       	ldi	r25, 0x00	; 0
    1fcc:	0e 94 60 11 	call	0x22c0	; 0x22c0 <__udivmodsi4>
		UBRRL =(char) rate;
    1fd0:	29 b9       	out	0x09, r18	; 9
		UBRRH = (char) (rate>>8);
    1fd2:	23 2f       	mov	r18, r19
    1fd4:	33 0f       	add	r19, r19
    1fd6:	33 0b       	sbc	r19, r19
    1fd8:	20 bd       	out	0x20, r18	; 32
		
		/*2 - Enable UART Sender & Receiver*/
		SET_BIT(UCSRB,TXEN);
    1fda:	53 9a       	sbi	0x0a, 3	; 10
		SET_BIT(UCSRB,RXEN);
    1fdc:	54 9a       	sbi	0x0a, 4	; 10

		/*3 - Choose asynchronous or synchronous from UCSRC.*/
		CLR_BIT(UCSRC,UMSEL);
    1fde:	80 b5       	in	r24, 0x20	; 32
    1fe0:	8f 7b       	andi	r24, 0xBF	; 191
    1fe2:	80 bd       	out	0x20, r24	; 32

		/*4 - Choose number of data bits to be sent from UCSRC We will work with 8 bits.*/
		SET_BIT(UCSRC,UCSZ0);
    1fe4:	80 b5       	in	r24, 0x20	; 32
    1fe6:	82 60       	ori	r24, 0x02	; 2
    1fe8:	80 bd       	out	0x20, r24	; 32
		SET_BIT(UCSRC,UCSZ1);
    1fea:	80 b5       	in	r24, 0x20	; 32
    1fec:	84 60       	ori	r24, 0x04	; 4
    1fee:	80 bd       	out	0x20, r24	; 32
		CLR_BIT(UCSRC,UCSZ2);
    1ff0:	80 b5       	in	r24, 0x20	; 32
    1ff2:	8b 7f       	andi	r24, 0xFB	; 251
    1ff4:	80 bd       	out	0x20, r24	; 32
	
		sei(); /*enable Interrupt */
    1ff6:	78 94       	sei
	
		SET_BIT(UCSRB,RXCIE); /*enable Interrupt receiving  */
    1ff8:	57 9a       	sbi	0x0a, 7	; 10
	
		SET_BIT(UCSRB,TXCIE); /*enable Interrupt transmit  */
    1ffa:	56 9a       	sbi	0x0a, 6	; 10


}
    1ffc:	08 95       	ret

00001ffe <UART_vSendData>:


	void UART_vSendData(char data)
{	
		/*Put data to transmit buffer*/
		UDR = data;
    1ffe:	8c b9       	out	0x0c, r24	; 12

		/*Wait for Transmit buffer to be empty*/
		while(!(READ_BIT_SET(UCSRA,TXC)))
    2000:	5e 9b       	sbis	0x0b, 6	; 11
    2002:	fe cf       	rjmp	.-4      	; 0x2000 <UART_vSendData+0x2>
		{
			/*wait until transmit done*/
		}
}
    2004:	08 95       	ret

00002006 <UART_u8ReceiveData>:


	char UART_u8ReceiveData()
{
		while(!(READ_BIT_SET(UCSRA,RXC)))
    2006:	5f 9b       	sbis	0x0b, 7	; 11
    2008:	fe cf       	rjmp	.-4      	; 0x2006 <UART_u8ReceiveData>
		{
			/*Wait for receive buffer to be filled with data*/
		}
	
		/*Receive data from Data Buffer*/
		return UDR;
    200a:	8c b1       	in	r24, 0x0c	; 12
    200c:	08 95       	ret

0000200e <__cmpsf2>:
    200e:	6c d0       	rcall	.+216    	; 0x20e8 <__fp_cmp>
    2010:	08 f4       	brcc	.+2      	; 0x2014 <__cmpsf2+0x6>
    2012:	81 e0       	ldi	r24, 0x01	; 1
    2014:	08 95       	ret

00002016 <__fixunssfsi>:
    2016:	94 d0       	rcall	.+296    	; 0x2140 <__fp_splitA>
    2018:	88 f0       	brcs	.+34     	; 0x203c <__fixunssfsi+0x26>
    201a:	9f 57       	subi	r25, 0x7F	; 127
    201c:	90 f0       	brcs	.+36     	; 0x2042 <__fixunssfsi+0x2c>
    201e:	b9 2f       	mov	r27, r25
    2020:	99 27       	eor	r25, r25
    2022:	b7 51       	subi	r27, 0x17	; 23
    2024:	a0 f0       	brcs	.+40     	; 0x204e <__fixunssfsi+0x38>
    2026:	d1 f0       	breq	.+52     	; 0x205c <__fixunssfsi+0x46>
    2028:	66 0f       	add	r22, r22
    202a:	77 1f       	adc	r23, r23
    202c:	88 1f       	adc	r24, r24
    202e:	99 1f       	adc	r25, r25
    2030:	1a f0       	brmi	.+6      	; 0x2038 <__fixunssfsi+0x22>
    2032:	ba 95       	dec	r27
    2034:	c9 f7       	brne	.-14     	; 0x2028 <__fixunssfsi+0x12>
    2036:	12 c0       	rjmp	.+36     	; 0x205c <__fixunssfsi+0x46>
    2038:	b1 30       	cpi	r27, 0x01	; 1
    203a:	81 f0       	breq	.+32     	; 0x205c <__fixunssfsi+0x46>
    203c:	9b d0       	rcall	.+310    	; 0x2174 <__fp_zero>
    203e:	b1 e0       	ldi	r27, 0x01	; 1
    2040:	08 95       	ret
    2042:	98 c0       	rjmp	.+304    	; 0x2174 <__fp_zero>
    2044:	67 2f       	mov	r22, r23
    2046:	78 2f       	mov	r23, r24
    2048:	88 27       	eor	r24, r24
    204a:	b8 5f       	subi	r27, 0xF8	; 248
    204c:	39 f0       	breq	.+14     	; 0x205c <__fixunssfsi+0x46>
    204e:	b9 3f       	cpi	r27, 0xF9	; 249
    2050:	cc f3       	brlt	.-14     	; 0x2044 <__fixunssfsi+0x2e>
    2052:	86 95       	lsr	r24
    2054:	77 95       	ror	r23
    2056:	67 95       	ror	r22
    2058:	b3 95       	inc	r27
    205a:	d9 f7       	brne	.-10     	; 0x2052 <__fixunssfsi+0x3c>
    205c:	3e f4       	brtc	.+14     	; 0x206c <__fixunssfsi+0x56>
    205e:	90 95       	com	r25
    2060:	80 95       	com	r24
    2062:	70 95       	com	r23
    2064:	61 95       	neg	r22
    2066:	7f 4f       	sbci	r23, 0xFF	; 255
    2068:	8f 4f       	sbci	r24, 0xFF	; 255
    206a:	9f 4f       	sbci	r25, 0xFF	; 255
    206c:	08 95       	ret

0000206e <__floatunsisf>:
    206e:	e8 94       	clt
    2070:	09 c0       	rjmp	.+18     	; 0x2084 <__floatsisf+0x12>

00002072 <__floatsisf>:
    2072:	97 fb       	bst	r25, 7
    2074:	3e f4       	brtc	.+14     	; 0x2084 <__floatsisf+0x12>
    2076:	90 95       	com	r25
    2078:	80 95       	com	r24
    207a:	70 95       	com	r23
    207c:	61 95       	neg	r22
    207e:	7f 4f       	sbci	r23, 0xFF	; 255
    2080:	8f 4f       	sbci	r24, 0xFF	; 255
    2082:	9f 4f       	sbci	r25, 0xFF	; 255
    2084:	99 23       	and	r25, r25
    2086:	a9 f0       	breq	.+42     	; 0x20b2 <__floatsisf+0x40>
    2088:	f9 2f       	mov	r31, r25
    208a:	96 e9       	ldi	r25, 0x96	; 150
    208c:	bb 27       	eor	r27, r27
    208e:	93 95       	inc	r25
    2090:	f6 95       	lsr	r31
    2092:	87 95       	ror	r24
    2094:	77 95       	ror	r23
    2096:	67 95       	ror	r22
    2098:	b7 95       	ror	r27
    209a:	f1 11       	cpse	r31, r1
    209c:	f8 cf       	rjmp	.-16     	; 0x208e <__floatsisf+0x1c>
    209e:	fa f4       	brpl	.+62     	; 0x20de <__floatsisf+0x6c>
    20a0:	bb 0f       	add	r27, r27
    20a2:	11 f4       	brne	.+4      	; 0x20a8 <__floatsisf+0x36>
    20a4:	60 ff       	sbrs	r22, 0
    20a6:	1b c0       	rjmp	.+54     	; 0x20de <__floatsisf+0x6c>
    20a8:	6f 5f       	subi	r22, 0xFF	; 255
    20aa:	7f 4f       	sbci	r23, 0xFF	; 255
    20ac:	8f 4f       	sbci	r24, 0xFF	; 255
    20ae:	9f 4f       	sbci	r25, 0xFF	; 255
    20b0:	16 c0       	rjmp	.+44     	; 0x20de <__floatsisf+0x6c>
    20b2:	88 23       	and	r24, r24
    20b4:	11 f0       	breq	.+4      	; 0x20ba <__floatsisf+0x48>
    20b6:	96 e9       	ldi	r25, 0x96	; 150
    20b8:	11 c0       	rjmp	.+34     	; 0x20dc <__floatsisf+0x6a>
    20ba:	77 23       	and	r23, r23
    20bc:	21 f0       	breq	.+8      	; 0x20c6 <__floatsisf+0x54>
    20be:	9e e8       	ldi	r25, 0x8E	; 142
    20c0:	87 2f       	mov	r24, r23
    20c2:	76 2f       	mov	r23, r22
    20c4:	05 c0       	rjmp	.+10     	; 0x20d0 <__floatsisf+0x5e>
    20c6:	66 23       	and	r22, r22
    20c8:	71 f0       	breq	.+28     	; 0x20e6 <__floatsisf+0x74>
    20ca:	96 e8       	ldi	r25, 0x86	; 134
    20cc:	86 2f       	mov	r24, r22
    20ce:	70 e0       	ldi	r23, 0x00	; 0
    20d0:	60 e0       	ldi	r22, 0x00	; 0
    20d2:	2a f0       	brmi	.+10     	; 0x20de <__floatsisf+0x6c>
    20d4:	9a 95       	dec	r25
    20d6:	66 0f       	add	r22, r22
    20d8:	77 1f       	adc	r23, r23
    20da:	88 1f       	adc	r24, r24
    20dc:	da f7       	brpl	.-10     	; 0x20d4 <__floatsisf+0x62>
    20de:	88 0f       	add	r24, r24
    20e0:	96 95       	lsr	r25
    20e2:	87 95       	ror	r24
    20e4:	97 f9       	bld	r25, 7
    20e6:	08 95       	ret

000020e8 <__fp_cmp>:
    20e8:	99 0f       	add	r25, r25
    20ea:	00 08       	sbc	r0, r0
    20ec:	55 0f       	add	r21, r21
    20ee:	aa 0b       	sbc	r26, r26
    20f0:	e0 e8       	ldi	r30, 0x80	; 128
    20f2:	fe ef       	ldi	r31, 0xFE	; 254
    20f4:	16 16       	cp	r1, r22
    20f6:	17 06       	cpc	r1, r23
    20f8:	e8 07       	cpc	r30, r24
    20fa:	f9 07       	cpc	r31, r25
    20fc:	c0 f0       	brcs	.+48     	; 0x212e <__fp_cmp+0x46>
    20fe:	12 16       	cp	r1, r18
    2100:	13 06       	cpc	r1, r19
    2102:	e4 07       	cpc	r30, r20
    2104:	f5 07       	cpc	r31, r21
    2106:	98 f0       	brcs	.+38     	; 0x212e <__fp_cmp+0x46>
    2108:	62 1b       	sub	r22, r18
    210a:	73 0b       	sbc	r23, r19
    210c:	84 0b       	sbc	r24, r20
    210e:	95 0b       	sbc	r25, r21
    2110:	39 f4       	brne	.+14     	; 0x2120 <__fp_cmp+0x38>
    2112:	0a 26       	eor	r0, r26
    2114:	61 f0       	breq	.+24     	; 0x212e <__fp_cmp+0x46>
    2116:	23 2b       	or	r18, r19
    2118:	24 2b       	or	r18, r20
    211a:	25 2b       	or	r18, r21
    211c:	21 f4       	brne	.+8      	; 0x2126 <__fp_cmp+0x3e>
    211e:	08 95       	ret
    2120:	0a 26       	eor	r0, r26
    2122:	09 f4       	brne	.+2      	; 0x2126 <__fp_cmp+0x3e>
    2124:	a1 40       	sbci	r26, 0x01	; 1
    2126:	a6 95       	lsr	r26
    2128:	8f ef       	ldi	r24, 0xFF	; 255
    212a:	81 1d       	adc	r24, r1
    212c:	81 1d       	adc	r24, r1
    212e:	08 95       	ret

00002130 <__fp_split3>:
    2130:	57 fd       	sbrc	r21, 7
    2132:	90 58       	subi	r25, 0x80	; 128
    2134:	44 0f       	add	r20, r20
    2136:	55 1f       	adc	r21, r21
    2138:	59 f0       	breq	.+22     	; 0x2150 <__fp_splitA+0x10>
    213a:	5f 3f       	cpi	r21, 0xFF	; 255
    213c:	71 f0       	breq	.+28     	; 0x215a <__fp_splitA+0x1a>
    213e:	47 95       	ror	r20

00002140 <__fp_splitA>:
    2140:	88 0f       	add	r24, r24
    2142:	97 fb       	bst	r25, 7
    2144:	99 1f       	adc	r25, r25
    2146:	61 f0       	breq	.+24     	; 0x2160 <__fp_splitA+0x20>
    2148:	9f 3f       	cpi	r25, 0xFF	; 255
    214a:	79 f0       	breq	.+30     	; 0x216a <__fp_splitA+0x2a>
    214c:	87 95       	ror	r24
    214e:	08 95       	ret
    2150:	12 16       	cp	r1, r18
    2152:	13 06       	cpc	r1, r19
    2154:	14 06       	cpc	r1, r20
    2156:	55 1f       	adc	r21, r21
    2158:	f2 cf       	rjmp	.-28     	; 0x213e <__fp_split3+0xe>
    215a:	46 95       	lsr	r20
    215c:	f1 df       	rcall	.-30     	; 0x2140 <__fp_splitA>
    215e:	08 c0       	rjmp	.+16     	; 0x2170 <__fp_splitA+0x30>
    2160:	16 16       	cp	r1, r22
    2162:	17 06       	cpc	r1, r23
    2164:	18 06       	cpc	r1, r24
    2166:	99 1f       	adc	r25, r25
    2168:	f1 cf       	rjmp	.-30     	; 0x214c <__fp_splitA+0xc>
    216a:	86 95       	lsr	r24
    216c:	71 05       	cpc	r23, r1
    216e:	61 05       	cpc	r22, r1
    2170:	08 94       	sec
    2172:	08 95       	ret

00002174 <__fp_zero>:
    2174:	e8 94       	clt

00002176 <__fp_szero>:
    2176:	bb 27       	eor	r27, r27
    2178:	66 27       	eor	r22, r22
    217a:	77 27       	eor	r23, r23
    217c:	cb 01       	movw	r24, r22
    217e:	97 f9       	bld	r25, 7
    2180:	08 95       	ret

00002182 <__mulsf3>:
    2182:	0b d0       	rcall	.+22     	; 0x219a <__mulsf3x>
    2184:	78 c0       	rjmp	.+240    	; 0x2276 <__fp_round>
    2186:	69 d0       	rcall	.+210    	; 0x225a <__fp_pscA>
    2188:	28 f0       	brcs	.+10     	; 0x2194 <__mulsf3+0x12>
    218a:	6e d0       	rcall	.+220    	; 0x2268 <__fp_pscB>
    218c:	18 f0       	brcs	.+6      	; 0x2194 <__mulsf3+0x12>
    218e:	95 23       	and	r25, r21
    2190:	09 f0       	breq	.+2      	; 0x2194 <__mulsf3+0x12>
    2192:	5a c0       	rjmp	.+180    	; 0x2248 <__fp_inf>
    2194:	5f c0       	rjmp	.+190    	; 0x2254 <__fp_nan>
    2196:	11 24       	eor	r1, r1
    2198:	ee cf       	rjmp	.-36     	; 0x2176 <__fp_szero>

0000219a <__mulsf3x>:
    219a:	ca df       	rcall	.-108    	; 0x2130 <__fp_split3>
    219c:	a0 f3       	brcs	.-24     	; 0x2186 <__mulsf3+0x4>

0000219e <__mulsf3_pse>:
    219e:	95 9f       	mul	r25, r21
    21a0:	d1 f3       	breq	.-12     	; 0x2196 <__mulsf3+0x14>
    21a2:	95 0f       	add	r25, r21
    21a4:	50 e0       	ldi	r21, 0x00	; 0
    21a6:	55 1f       	adc	r21, r21
    21a8:	62 9f       	mul	r22, r18
    21aa:	f0 01       	movw	r30, r0
    21ac:	72 9f       	mul	r23, r18
    21ae:	bb 27       	eor	r27, r27
    21b0:	f0 0d       	add	r31, r0
    21b2:	b1 1d       	adc	r27, r1
    21b4:	63 9f       	mul	r22, r19
    21b6:	aa 27       	eor	r26, r26
    21b8:	f0 0d       	add	r31, r0
    21ba:	b1 1d       	adc	r27, r1
    21bc:	aa 1f       	adc	r26, r26
    21be:	64 9f       	mul	r22, r20
    21c0:	66 27       	eor	r22, r22
    21c2:	b0 0d       	add	r27, r0
    21c4:	a1 1d       	adc	r26, r1
    21c6:	66 1f       	adc	r22, r22
    21c8:	82 9f       	mul	r24, r18
    21ca:	22 27       	eor	r18, r18
    21cc:	b0 0d       	add	r27, r0
    21ce:	a1 1d       	adc	r26, r1
    21d0:	62 1f       	adc	r22, r18
    21d2:	73 9f       	mul	r23, r19
    21d4:	b0 0d       	add	r27, r0
    21d6:	a1 1d       	adc	r26, r1
    21d8:	62 1f       	adc	r22, r18
    21da:	83 9f       	mul	r24, r19
    21dc:	a0 0d       	add	r26, r0
    21de:	61 1d       	adc	r22, r1
    21e0:	22 1f       	adc	r18, r18
    21e2:	74 9f       	mul	r23, r20
    21e4:	33 27       	eor	r19, r19
    21e6:	a0 0d       	add	r26, r0
    21e8:	61 1d       	adc	r22, r1
    21ea:	23 1f       	adc	r18, r19
    21ec:	84 9f       	mul	r24, r20
    21ee:	60 0d       	add	r22, r0
    21f0:	21 1d       	adc	r18, r1
    21f2:	82 2f       	mov	r24, r18
    21f4:	76 2f       	mov	r23, r22
    21f6:	6a 2f       	mov	r22, r26
    21f8:	11 24       	eor	r1, r1
    21fa:	9f 57       	subi	r25, 0x7F	; 127
    21fc:	50 40       	sbci	r21, 0x00	; 0
    21fe:	8a f0       	brmi	.+34     	; 0x2222 <__mulsf3_pse+0x84>
    2200:	e1 f0       	breq	.+56     	; 0x223a <__mulsf3_pse+0x9c>
    2202:	88 23       	and	r24, r24
    2204:	4a f0       	brmi	.+18     	; 0x2218 <__mulsf3_pse+0x7a>
    2206:	ee 0f       	add	r30, r30
    2208:	ff 1f       	adc	r31, r31
    220a:	bb 1f       	adc	r27, r27
    220c:	66 1f       	adc	r22, r22
    220e:	77 1f       	adc	r23, r23
    2210:	88 1f       	adc	r24, r24
    2212:	91 50       	subi	r25, 0x01	; 1
    2214:	50 40       	sbci	r21, 0x00	; 0
    2216:	a9 f7       	brne	.-22     	; 0x2202 <__mulsf3_pse+0x64>
    2218:	9e 3f       	cpi	r25, 0xFE	; 254
    221a:	51 05       	cpc	r21, r1
    221c:	70 f0       	brcs	.+28     	; 0x223a <__mulsf3_pse+0x9c>
    221e:	14 c0       	rjmp	.+40     	; 0x2248 <__fp_inf>
    2220:	aa cf       	rjmp	.-172    	; 0x2176 <__fp_szero>
    2222:	5f 3f       	cpi	r21, 0xFF	; 255
    2224:	ec f3       	brlt	.-6      	; 0x2220 <__mulsf3_pse+0x82>
    2226:	98 3e       	cpi	r25, 0xE8	; 232
    2228:	dc f3       	brlt	.-10     	; 0x2220 <__mulsf3_pse+0x82>
    222a:	86 95       	lsr	r24
    222c:	77 95       	ror	r23
    222e:	67 95       	ror	r22
    2230:	b7 95       	ror	r27
    2232:	f7 95       	ror	r31
    2234:	e7 95       	ror	r30
    2236:	9f 5f       	subi	r25, 0xFF	; 255
    2238:	c1 f7       	brne	.-16     	; 0x222a <__mulsf3_pse+0x8c>
    223a:	fe 2b       	or	r31, r30
    223c:	88 0f       	add	r24, r24
    223e:	91 1d       	adc	r25, r1
    2240:	96 95       	lsr	r25
    2242:	87 95       	ror	r24
    2244:	97 f9       	bld	r25, 7
    2246:	08 95       	ret

00002248 <__fp_inf>:
    2248:	97 f9       	bld	r25, 7
    224a:	9f 67       	ori	r25, 0x7F	; 127
    224c:	80 e8       	ldi	r24, 0x80	; 128
    224e:	70 e0       	ldi	r23, 0x00	; 0
    2250:	60 e0       	ldi	r22, 0x00	; 0
    2252:	08 95       	ret

00002254 <__fp_nan>:
    2254:	9f ef       	ldi	r25, 0xFF	; 255
    2256:	80 ec       	ldi	r24, 0xC0	; 192
    2258:	08 95       	ret

0000225a <__fp_pscA>:
    225a:	00 24       	eor	r0, r0
    225c:	0a 94       	dec	r0
    225e:	16 16       	cp	r1, r22
    2260:	17 06       	cpc	r1, r23
    2262:	18 06       	cpc	r1, r24
    2264:	09 06       	cpc	r0, r25
    2266:	08 95       	ret

00002268 <__fp_pscB>:
    2268:	00 24       	eor	r0, r0
    226a:	0a 94       	dec	r0
    226c:	12 16       	cp	r1, r18
    226e:	13 06       	cpc	r1, r19
    2270:	14 06       	cpc	r1, r20
    2272:	05 06       	cpc	r0, r21
    2274:	08 95       	ret

00002276 <__fp_round>:
    2276:	09 2e       	mov	r0, r25
    2278:	03 94       	inc	r0
    227a:	00 0c       	add	r0, r0
    227c:	11 f4       	brne	.+4      	; 0x2282 <__fp_round+0xc>
    227e:	88 23       	and	r24, r24
    2280:	52 f0       	brmi	.+20     	; 0x2296 <__fp_round+0x20>
    2282:	bb 0f       	add	r27, r27
    2284:	40 f4       	brcc	.+16     	; 0x2296 <__fp_round+0x20>
    2286:	bf 2b       	or	r27, r31
    2288:	11 f4       	brne	.+4      	; 0x228e <__fp_round+0x18>
    228a:	60 ff       	sbrs	r22, 0
    228c:	04 c0       	rjmp	.+8      	; 0x2296 <__fp_round+0x20>
    228e:	6f 5f       	subi	r22, 0xFF	; 255
    2290:	7f 4f       	sbci	r23, 0xFF	; 255
    2292:	8f 4f       	sbci	r24, 0xFF	; 255
    2294:	9f 4f       	sbci	r25, 0xFF	; 255
    2296:	08 95       	ret

00002298 <__udivmodhi4>:
    2298:	aa 1b       	sub	r26, r26
    229a:	bb 1b       	sub	r27, r27
    229c:	51 e1       	ldi	r21, 0x11	; 17
    229e:	07 c0       	rjmp	.+14     	; 0x22ae <__udivmodhi4_ep>

000022a0 <__udivmodhi4_loop>:
    22a0:	aa 1f       	adc	r26, r26
    22a2:	bb 1f       	adc	r27, r27
    22a4:	a6 17       	cp	r26, r22
    22a6:	b7 07       	cpc	r27, r23
    22a8:	10 f0       	brcs	.+4      	; 0x22ae <__udivmodhi4_ep>
    22aa:	a6 1b       	sub	r26, r22
    22ac:	b7 0b       	sbc	r27, r23

000022ae <__udivmodhi4_ep>:
    22ae:	88 1f       	adc	r24, r24
    22b0:	99 1f       	adc	r25, r25
    22b2:	5a 95       	dec	r21
    22b4:	a9 f7       	brne	.-22     	; 0x22a0 <__udivmodhi4_loop>
    22b6:	80 95       	com	r24
    22b8:	90 95       	com	r25
    22ba:	bc 01       	movw	r22, r24
    22bc:	cd 01       	movw	r24, r26
    22be:	08 95       	ret

000022c0 <__udivmodsi4>:
    22c0:	a1 e2       	ldi	r26, 0x21	; 33
    22c2:	1a 2e       	mov	r1, r26
    22c4:	aa 1b       	sub	r26, r26
    22c6:	bb 1b       	sub	r27, r27
    22c8:	fd 01       	movw	r30, r26
    22ca:	0d c0       	rjmp	.+26     	; 0x22e6 <__udivmodsi4_ep>

000022cc <__udivmodsi4_loop>:
    22cc:	aa 1f       	adc	r26, r26
    22ce:	bb 1f       	adc	r27, r27
    22d0:	ee 1f       	adc	r30, r30
    22d2:	ff 1f       	adc	r31, r31
    22d4:	a2 17       	cp	r26, r18
    22d6:	b3 07       	cpc	r27, r19
    22d8:	e4 07       	cpc	r30, r20
    22da:	f5 07       	cpc	r31, r21
    22dc:	20 f0       	brcs	.+8      	; 0x22e6 <__udivmodsi4_ep>
    22de:	a2 1b       	sub	r26, r18
    22e0:	b3 0b       	sbc	r27, r19
    22e2:	e4 0b       	sbc	r30, r20
    22e4:	f5 0b       	sbc	r31, r21

000022e6 <__udivmodsi4_ep>:
    22e6:	66 1f       	adc	r22, r22
    22e8:	77 1f       	adc	r23, r23
    22ea:	88 1f       	adc	r24, r24
    22ec:	99 1f       	adc	r25, r25
    22ee:	1a 94       	dec	r1
    22f0:	69 f7       	brne	.-38     	; 0x22cc <__udivmodsi4_loop>
    22f2:	60 95       	com	r22
    22f4:	70 95       	com	r23
    22f6:	80 95       	com	r24
    22f8:	90 95       	com	r25
    22fa:	9b 01       	movw	r18, r22
    22fc:	ac 01       	movw	r20, r24
    22fe:	bd 01       	movw	r22, r26
    2300:	cf 01       	movw	r24, r30
    2302:	08 95       	ret

00002304 <_exit>:
    2304:	f8 94       	cli

00002306 <__stop_program>:
    2306:	ff cf       	rjmp	.-2      	; 0x2306 <__stop_program>
